	.text
	.def	@feat.00;
	.scl	3;
	.type	0;
	.endef
	.globl	@feat.00
.set @feat.00, 0
	.file	"main.a544e51d33c77218-cgu.0"
	.def	_ZN102_$LT$core..iter..adapters..map..Map$LT$I$C$F$GT$$u20$as$u20$core..iter..traits..iterator..Iterator$GT$4fold17h5729dade3f6c5873E;
	.scl	3;
	.type	32;
	.endef
	.section	.text,"xr",one_only,_ZN102_$LT$core..iter..adapters..map..Map$LT$I$C$F$GT$$u20$as$u20$core..iter..traits..iterator..Iterator$GT$4fold17h5729dade3f6c5873E
	.p2align	4, 0x90
_ZN102_$LT$core..iter..adapters..map..Map$LT$I$C$F$GT$$u20$as$u20$core..iter..traits..iterator..Iterator$GT$4fold17h5729dade3f6c5873E:
.Lfunc_begin0:
.seh_proc _ZN102_$LT$core..iter..adapters..map..Map$LT$I$C$F$GT$$u20$as$u20$core..iter..traits..iterator..Iterator$GT$4fold17h5729dade3f6c5873E
	.seh_handler __CxxFrameHandler3, @unwind, @except
	pushq	%rbp
	.seh_pushreg %rbp
	subq	$64, %rsp
	.seh_stackalloc 64
	leaq	64(%rsp), %rbp
	.seh_setframe %rbp, 64
	.seh_endprologue
	movq	$-2, -8(%rbp)
	movq	%rdx, %r8
	movq	%rcx, %rdx
	movq	(%rdx), %rax
	movq	8(%rdx), %rcx
	movq	16(%rdx), %rdx
	movq	%rax, -16(%rbp)
	movq	-16(%rbp), %r9
.Ltmp0:
	callq	_ZN4core4iter6traits8iterator8Iterator4fold17h3f7f79dfd235aefaE
.Ltmp1:
	movq	%rax, -24(%rbp)
	jmp	.LBB0_2
.LBB0_2:
	movq	-24(%rbp), %rax
	addq	$64, %rsp
	popq	%rbp
	retq
	.seh_handlerdata
	.long	($cppxdata$_ZN102_$LT$core..iter..adapters..map..Map$LT$I$C$F$GT$$u20$as$u20$core..iter..traits..iterator..Iterator$GT$4fold17h5729dade3f6c5873E)@IMGREL
	.section	.text,"xr",one_only,_ZN102_$LT$core..iter..adapters..map..Map$LT$I$C$F$GT$$u20$as$u20$core..iter..traits..iterator..Iterator$GT$4fold17h5729dade3f6c5873E
	.seh_endproc
	.def	"?dtor$1@?0?_ZN102_$LT$core..iter..adapters..map..Map$LT$I$C$F$GT$$u20$as$u20$core..iter..traits..iterator..Iterator$GT$4fold17h5729dade3f6c5873E@4HA";
	.scl	3;
	.type	32;
	.endef
	.p2align	4, 0x90
"?dtor$1@?0?_ZN102_$LT$core..iter..adapters..map..Map$LT$I$C$F$GT$$u20$as$u20$core..iter..traits..iterator..Iterator$GT$4fold17h5729dade3f6c5873E@4HA":
.seh_proc "?dtor$1@?0?_ZN102_$LT$core..iter..adapters..map..Map$LT$I$C$F$GT$$u20$as$u20$core..iter..traits..iterator..Iterator$GT$4fold17h5729dade3f6c5873E@4HA"
.LBB0_1:
	movq	%rdx, 16(%rsp)
	pushq	%rbp
	.seh_pushreg %rbp
	subq	$32, %rsp
	.seh_stackalloc 32
	leaq	64(%rdx), %rbp
	.seh_endprologue
	addq	$32, %rsp
	popq	%rbp
	retq
.Lfunc_end0:
	.seh_handlerdata
	.section	.text,"xr",one_only,_ZN102_$LT$core..iter..adapters..map..Map$LT$I$C$F$GT$$u20$as$u20$core..iter..traits..iterator..Iterator$GT$4fold17h5729dade3f6c5873E
	.seh_endproc
	.section	.xdata,"dr",associative,_ZN102_$LT$core..iter..adapters..map..Map$LT$I$C$F$GT$$u20$as$u20$core..iter..traits..iterator..Iterator$GT$4fold17h5729dade3f6c5873E
	.p2align	2, 0x0
$cppxdata$_ZN102_$LT$core..iter..adapters..map..Map$LT$I$C$F$GT$$u20$as$u20$core..iter..traits..iterator..Iterator$GT$4fold17h5729dade3f6c5873E:
	.long	429065506
	.long	1
	.long	($stateUnwindMap$_ZN102_$LT$core..iter..adapters..map..Map$LT$I$C$F$GT$$u20$as$u20$core..iter..traits..iterator..Iterator$GT$4fold17h5729dade3f6c5873E)@IMGREL
	.long	0
	.long	0
	.long	3
	.long	($ip2state$_ZN102_$LT$core..iter..adapters..map..Map$LT$I$C$F$GT$$u20$as$u20$core..iter..traits..iterator..Iterator$GT$4fold17h5729dade3f6c5873E)@IMGREL
	.long	56
	.long	0
	.long	1
$stateUnwindMap$_ZN102_$LT$core..iter..adapters..map..Map$LT$I$C$F$GT$$u20$as$u20$core..iter..traits..iterator..Iterator$GT$4fold17h5729dade3f6c5873E:
	.long	-1
	.long	"?dtor$1@?0?_ZN102_$LT$core..iter..adapters..map..Map$LT$I$C$F$GT$$u20$as$u20$core..iter..traits..iterator..Iterator$GT$4fold17h5729dade3f6c5873E@4HA"@IMGREL
$ip2state$_ZN102_$LT$core..iter..adapters..map..Map$LT$I$C$F$GT$$u20$as$u20$core..iter..traits..iterator..Iterator$GT$4fold17h5729dade3f6c5873E:
	.long	.Lfunc_begin0@IMGREL
	.long	-1
	.long	.Ltmp0@IMGREL+1
	.long	0
	.long	.Ltmp1@IMGREL+1
	.long	-1
	.section	.text,"xr",one_only,_ZN102_$LT$core..iter..adapters..map..Map$LT$I$C$F$GT$$u20$as$u20$core..iter..traits..iterator..Iterator$GT$4fold17h5729dade3f6c5873E

	.def	_ZN102_$LT$core..iter..adapters..map..Map$LT$I$C$F$GT$$u20$as$u20$core..iter..traits..iterator..Iterator$GT$4next17h54b5eb7c494faa41E;
	.scl	3;
	.type	32;
	.endef
	.section	.text,"xr",one_only,_ZN102_$LT$core..iter..adapters..map..Map$LT$I$C$F$GT$$u20$as$u20$core..iter..traits..iterator..Iterator$GT$4next17h54b5eb7c494faa41E
	.p2align	4, 0x90
_ZN102_$LT$core..iter..adapters..map..Map$LT$I$C$F$GT$$u20$as$u20$core..iter..traits..iterator..Iterator$GT$4next17h54b5eb7c494faa41E:
.seh_proc _ZN102_$LT$core..iter..adapters..map..Map$LT$I$C$F$GT$$u20$as$u20$core..iter..traits..iterator..Iterator$GT$4next17h54b5eb7c494faa41E
	subq	$104, %rsp
	.seh_stackalloc 104
	.seh_endprologue
	movq	%rcx, 40(%rsp)
	callq	_ZN81_$LT$core..str..iter..Lines$u20$as$u20$core..iter..traits..iterator..Iterator$GT$4next17hf7349eb203b54a66E
	movq	40(%rsp), %rcx
	movq	%rdx, 80(%rsp)
	movq	%rax, 72(%rsp)
	addq	$72, %rcx
	movq	%rcx, 48(%rsp)
	movq	72(%rsp), %rdx
	movl	$1, %eax
	xorl	%ecx, %ecx
	cmpq	$0, %rdx
	cmoveq	%rcx, %rax
	cmpq	$0, %rax
	jne	.LBB1_2
	movq	$0, 56(%rsp)
	jmp	.LBB1_3
.LBB1_2:
	movq	48(%rsp), %rcx
	movq	72(%rsp), %rdx
	movq	80(%rsp), %rax
	movq	%rdx, 88(%rsp)
	movq	%rax, 96(%rsp)
	movq	88(%rsp), %rdx
	movq	96(%rsp), %r8
	callq	_ZN4core3ops8function5impls80_$LT$impl$u20$core..ops..function..FnOnce$LT$A$GT$$u20$for$u20$$RF$mut$u20$F$GT$9call_once17h95623eebb1b20cf9E
	movq	%rax, 56(%rsp)
	movq	%rdx, 64(%rsp)
.LBB1_3:
	movq	56(%rsp), %rax
	movq	64(%rsp), %rdx
	addq	$104, %rsp
	retq
	.seh_endproc

	.def	_ZN102_$LT$core..iter..adapters..map..Map$LT$I$C$F$GT$$u20$as$u20$core..iter..traits..iterator..Iterator$GT$4next17h56904a9aec11ac24E;
	.scl	3;
	.type	32;
	.endef
	.section	.text,"xr",one_only,_ZN102_$LT$core..iter..adapters..map..Map$LT$I$C$F$GT$$u20$as$u20$core..iter..traits..iterator..Iterator$GT$4next17h56904a9aec11ac24E
	.p2align	4, 0x90
_ZN102_$LT$core..iter..adapters..map..Map$LT$I$C$F$GT$$u20$as$u20$core..iter..traits..iterator..Iterator$GT$4next17h56904a9aec11ac24E:
.seh_proc _ZN102_$LT$core..iter..adapters..map..Map$LT$I$C$F$GT$$u20$as$u20$core..iter..traits..iterator..Iterator$GT$4next17h56904a9aec11ac24E
	subq	$104, %rsp
	.seh_stackalloc 104
	.seh_endprologue
	movq	%rcx, 40(%rsp)
	callq	_ZN99_$LT$core..str..iter..SplitInclusive$LT$P$GT$$u20$as$u20$core..iter..traits..iterator..Iterator$GT$4next17h23152e37116aa0bfE
	movq	40(%rsp), %rcx
	movq	%rdx, 80(%rsp)
	movq	%rax, 72(%rsp)
	addq	$72, %rcx
	movq	%rcx, 48(%rsp)
	movq	72(%rsp), %rdx
	movl	$1, %eax
	xorl	%ecx, %ecx
	cmpq	$0, %rdx
	cmoveq	%rcx, %rax
	cmpq	$0, %rax
	jne	.LBB2_2
	movq	$0, 56(%rsp)
	jmp	.LBB2_3
.LBB2_2:
	movq	48(%rsp), %rcx
	movq	72(%rsp), %rdx
	movq	80(%rsp), %rax
	movq	%rdx, 88(%rsp)
	movq	%rax, 96(%rsp)
	movq	88(%rsp), %rdx
	movq	96(%rsp), %r8
	callq	_ZN4core3ops8function5impls80_$LT$impl$u20$core..ops..function..FnOnce$LT$A$GT$$u20$for$u20$$RF$mut$u20$F$GT$9call_once17h6458a06683edd967E
	movq	%rax, 56(%rsp)
	movq	%rdx, 64(%rsp)
.LBB2_3:
	movq	56(%rsp), %rax
	movq	64(%rsp), %rdx
	addq	$104, %rsp
	retq
	.seh_endproc

	.def	_ZN102_$LT$core..iter..adapters..map..Map$LT$I$C$F$GT$$u20$as$u20$core..iter..traits..iterator..Iterator$GT$4next17hea604985130bd6a1E;
	.scl	3;
	.type	32;
	.endef
	.section	.text,"xr",one_only,_ZN102_$LT$core..iter..adapters..map..Map$LT$I$C$F$GT$$u20$as$u20$core..iter..traits..iterator..Iterator$GT$4next17hea604985130bd6a1E
	.p2align	4, 0x90
_ZN102_$LT$core..iter..adapters..map..Map$LT$I$C$F$GT$$u20$as$u20$core..iter..traits..iterator..Iterator$GT$4next17hea604985130bd6a1E:
.seh_proc _ZN102_$LT$core..iter..adapters..map..Map$LT$I$C$F$GT$$u20$as$u20$core..iter..traits..iterator..Iterator$GT$4next17hea604985130bd6a1E
	subq	$72, %rsp
	.seh_stackalloc 72
	.seh_endprologue
	movq	%rcx, 40(%rsp)
	callq	_ZN81_$LT$core..str..iter..Chars$u20$as$u20$core..iter..traits..iterator..Iterator$GT$4next17h9acb2340324607faE
	movq	40(%rsp), %rcx
	movl	%eax, 64(%rsp)
	addq	$16, %rcx
	movq	%rcx, 48(%rsp)
	movl	$1, %eax
	xorl	%ecx, %ecx
	cmpl	$1114112, 64(%rsp)
	cmoveq	%rcx, %rax
	cmpq	$0, %rax
	jne	.LBB3_2
	movb	$0, 62(%rsp)
	jmp	.LBB3_3
.LBB3_2:
	movq	48(%rsp), %rcx
	movl	64(%rsp), %eax
	movl	%eax, 68(%rsp)
	movl	68(%rsp), %edx
	callq	_ZN4core3ops8function5impls80_$LT$impl$u20$core..ops..function..FnOnce$LT$A$GT$$u20$for$u20$$RF$mut$u20$F$GT$9call_once17heaee4000ef533182E
	movb	%al, 63(%rsp)
	movb	$1, 62(%rsp)
.LBB3_3:
	movb	62(%rsp), %al
	movb	63(%rsp), %dl
	addq	$72, %rsp
	retq
	.seh_endproc

	.def	_ZN102_$LT$core..iter..adapters..map..Map$LT$I$C$F$GT$$u20$as$u20$core..iter..traits..iterator..Iterator$GT$9size_hint17h092eabaecba3446bE;
	.scl	3;
	.type	32;
	.endef
	.section	.text,"xr",one_only,_ZN102_$LT$core..iter..adapters..map..Map$LT$I$C$F$GT$$u20$as$u20$core..iter..traits..iterator..Iterator$GT$9size_hint17h092eabaecba3446bE
	.p2align	4, 0x90
_ZN102_$LT$core..iter..adapters..map..Map$LT$I$C$F$GT$$u20$as$u20$core..iter..traits..iterator..Iterator$GT$9size_hint17h092eabaecba3446bE:
.seh_proc _ZN102_$LT$core..iter..adapters..map..Map$LT$I$C$F$GT$$u20$as$u20$core..iter..traits..iterator..Iterator$GT$9size_hint17h092eabaecba3446bE
	subq	$40, %rsp
	.seh_stackalloc 40
	.seh_endprologue
	movq	%rcx, %rax
	movq	%rax, 32(%rsp)
	callq	_ZN81_$LT$core..str..iter..Lines$u20$as$u20$core..iter..traits..iterator..Iterator$GT$9size_hint17h58539bd28ab2b192E
	movq	32(%rsp), %rax
	addq	$40, %rsp
	retq
	.seh_endproc

	.def	_ZN102_$LT$core..iter..adapters..map..Map$LT$I$C$F$GT$$u20$as$u20$core..iter..traits..iterator..Iterator$GT$9size_hint17hf8a3e94fcfd8e229E;
	.scl	3;
	.type	32;
	.endef
	.section	.text,"xr",one_only,_ZN102_$LT$core..iter..adapters..map..Map$LT$I$C$F$GT$$u20$as$u20$core..iter..traits..iterator..Iterator$GT$9size_hint17hf8a3e94fcfd8e229E
	.p2align	4, 0x90
_ZN102_$LT$core..iter..adapters..map..Map$LT$I$C$F$GT$$u20$as$u20$core..iter..traits..iterator..Iterator$GT$9size_hint17hf8a3e94fcfd8e229E:
.seh_proc _ZN102_$LT$core..iter..adapters..map..Map$LT$I$C$F$GT$$u20$as$u20$core..iter..traits..iterator..Iterator$GT$9size_hint17hf8a3e94fcfd8e229E
	subq	$40, %rsp
	.seh_stackalloc 40
	.seh_endprologue
	movq	%rcx, %rax
	movq	%rax, 32(%rsp)
	callq	_ZN81_$LT$core..str..iter..Chars$u20$as$u20$core..iter..traits..iterator..Iterator$GT$9size_hint17hfb0702ad9a9ac19cE
	movq	32(%rsp), %rax
	addq	$40, %rsp
	retq
	.seh_endproc

	.def	_ZN104_$LT$core..ops..control_flow..ControlFlow$LT$B$C$C$GT$$u20$as$u20$core..ops..try_trait..FromResidual$GT$13from_residual17h9eedc368834a345aE;
	.scl	3;
	.type	32;
	.endef
	.section	.text,"xr",one_only,_ZN104_$LT$core..ops..control_flow..ControlFlow$LT$B$C$C$GT$$u20$as$u20$core..ops..try_trait..FromResidual$GT$13from_residual17h9eedc368834a345aE
	.p2align	4, 0x90
_ZN104_$LT$core..ops..control_flow..ControlFlow$LT$B$C$C$GT$$u20$as$u20$core..ops..try_trait..FromResidual$GT$13from_residual17h9eedc368834a345aE:
.seh_proc _ZN104_$LT$core..ops..control_flow..ControlFlow$LT$B$C$C$GT$$u20$as$u20$core..ops..try_trait..FromResidual$GT$13from_residual17h9eedc368834a345aE
	subq	$24, %rsp
	.seh_stackalloc 24
	.seh_endprologue
	movq	%rcx, (%rsp)
	movq	(%rsp), %rax
	movq	%rax, 16(%rsp)
	movq	$1, 8(%rsp)
	movq	8(%rsp), %rax
	movq	16(%rsp), %rdx
	addq	$24, %rsp
	retq
	.seh_endproc

	.def	_ZN106_$LT$core..ops..range..Range$LT$usize$GT$$u20$as$u20$core..slice..index..SliceIndex$LT$$u5b$T$u5d$$GT$$GT$3get17hf8c0ddf677615e61E;
	.scl	3;
	.type	32;
	.endef
	.section	.text,"xr",one_only,_ZN106_$LT$core..ops..range..Range$LT$usize$GT$$u20$as$u20$core..slice..index..SliceIndex$LT$$u5b$T$u5d$$GT$$GT$3get17hf8c0ddf677615e61E
	.p2align	4, 0x90
_ZN106_$LT$core..ops..range..Range$LT$usize$GT$$u20$as$u20$core..slice..index..SliceIndex$LT$$u5b$T$u5d$$GT$$GT$3get17hf8c0ddf677615e61E:
.seh_proc _ZN106_$LT$core..ops..range..Range$LT$usize$GT$$u20$as$u20$core..slice..index..SliceIndex$LT$$u5b$T$u5d$$GT$$GT$3get17hf8c0ddf677615e61E
	subq	$80, %rsp
	.seh_stackalloc 80
	.seh_endprologue
	movq	%r9, (%rsp)
	movq	%r8, 8(%rsp)
	movq	%rdx, 16(%rsp)
	movq	%rcx, 24(%rsp)
	cmpq	%rdx, %rcx
	ja	.LBB7_2
	movq	16(%rsp), %rax
	movq	(%rsp), %rcx
	cmpq	%rcx, %rax
	ja	.LBB7_4
	jmp	.LBB7_3
.LBB7_2:
	jmp	.LBB7_4
.LBB7_3:
	movq	24(%rsp), %rdx
	movq	8(%rsp), %rcx
	movq	16(%rsp), %rax
	subq	%rdx, %rax
	addq	%rdx, %rcx
	movq	%rcx, 64(%rsp)
	movq	%rax, 72(%rsp)
	movq	64(%rsp), %rcx
	movq	72(%rsp), %rax
	movq	%rcx, 48(%rsp)
	movq	%rax, 56(%rsp)
	movq	48(%rsp), %rcx
	movq	56(%rsp), %rax
	movq	%rcx, 32(%rsp)
	movq	%rax, 40(%rsp)
	jmp	.LBB7_5
.LBB7_4:
	movq	$0, 32(%rsp)
.LBB7_5:
	movq	32(%rsp), %rax
	movq	40(%rsp), %rdx
	addq	$80, %rsp
	retq
	.seh_endproc

	.def	_ZN106_$LT$core..ops..range..Range$LT$usize$GT$$u20$as$u20$core..slice..index..SliceIndex$LT$$u5b$T$u5d$$GT$$GT$5index17h9ff3a342b6ea7103E;
	.scl	3;
	.type	32;
	.endef
	.section	.text,"xr",one_only,_ZN106_$LT$core..ops..range..Range$LT$usize$GT$$u20$as$u20$core..slice..index..SliceIndex$LT$$u5b$T$u5d$$GT$$GT$5index17h9ff3a342b6ea7103E
	.p2align	4, 0x90
_ZN106_$LT$core..ops..range..Range$LT$usize$GT$$u20$as$u20$core..slice..index..SliceIndex$LT$$u5b$T$u5d$$GT$$GT$5index17h9ff3a342b6ea7103E:
.seh_proc _ZN106_$LT$core..ops..range..Range$LT$usize$GT$$u20$as$u20$core..slice..index..SliceIndex$LT$$u5b$T$u5d$$GT$$GT$5index17h9ff3a342b6ea7103E
	subq	$104, %rsp
	.seh_stackalloc 104
	.seh_endprologue
	movq	%r9, 32(%rsp)
	movq	%r8, 40(%rsp)
	movq	%rdx, 48(%rsp)
	movq	%rcx, 56(%rsp)
	movq	144(%rsp), %rax
	movq	%rax, 64(%rsp)
	cmpq	%rdx, %rcx
	ja	.LBB8_2
	movq	48(%rsp), %rax
	movq	32(%rsp), %rcx
	cmpq	%rcx, %rax
	ja	.LBB8_4
	jmp	.LBB8_3
.LBB8_2:
	movq	64(%rsp), %r8
	movq	48(%rsp), %rdx
	movq	56(%rsp), %rcx
	callq	_ZN4core5slice5index22slice_index_order_fail17h49101bee39f64f10E
.LBB8_3:
	movq	56(%rsp), %rdx
	movq	40(%rsp), %rcx
	movq	48(%rsp), %rax
	subq	%rdx, %rax
	addq	%rdx, %rcx
	movq	%rcx, 88(%rsp)
	movq	%rax, 96(%rsp)
	movq	88(%rsp), %rcx
	movq	96(%rsp), %rax
	movq	%rcx, 72(%rsp)
	movq	%rax, 80(%rsp)
	movq	72(%rsp), %rax
	movq	80(%rsp), %rdx
	addq	$104, %rsp
	retq
.LBB8_4:
	movq	64(%rsp), %r8
	movq	32(%rsp), %rdx
	movq	48(%rsp), %rcx
	callq	_ZN4core5slice5index24slice_end_index_len_fail17h79fe82183a1661d8E
	int3
	.seh_endproc

	.def	_ZN106_$LT$core..ops..range..Range$LT$usize$GT$$u20$as$u20$core..slice..index..SliceIndex$LT$$u5b$T$u5d$$GT$$GT$9index_mut17hdc558cf9012288efE;
	.scl	3;
	.type	32;
	.endef
	.section	.text,"xr",one_only,_ZN106_$LT$core..ops..range..Range$LT$usize$GT$$u20$as$u20$core..slice..index..SliceIndex$LT$$u5b$T$u5d$$GT$$GT$9index_mut17hdc558cf9012288efE
	.p2align	4, 0x90
_ZN106_$LT$core..ops..range..Range$LT$usize$GT$$u20$as$u20$core..slice..index..SliceIndex$LT$$u5b$T$u5d$$GT$$GT$9index_mut17hdc558cf9012288efE:
.seh_proc _ZN106_$LT$core..ops..range..Range$LT$usize$GT$$u20$as$u20$core..slice..index..SliceIndex$LT$$u5b$T$u5d$$GT$$GT$9index_mut17hdc558cf9012288efE
	subq	$104, %rsp
	.seh_stackalloc 104
	.seh_endprologue
	movq	%r9, 32(%rsp)
	movq	%r8, 40(%rsp)
	movq	%rdx, 48(%rsp)
	movq	%rcx, 56(%rsp)
	movq	144(%rsp), %rax
	movq	%rax, 64(%rsp)
	cmpq	%rdx, %rcx
	ja	.LBB9_2
	movq	48(%rsp), %rax
	movq	32(%rsp), %rcx
	cmpq	%rcx, %rax
	ja	.LBB9_4
	jmp	.LBB9_3
.LBB9_2:
	movq	64(%rsp), %r8
	movq	48(%rsp), %rdx
	movq	56(%rsp), %rcx
	callq	_ZN4core5slice5index22slice_index_order_fail17h49101bee39f64f10E
.LBB9_3:
	movq	56(%rsp), %rdx
	movq	40(%rsp), %rcx
	movq	48(%rsp), %rax
	subq	%rdx, %rax
	addq	%rdx, %rcx
	movq	%rcx, 88(%rsp)
	movq	%rax, 96(%rsp)
	movq	88(%rsp), %rcx
	movq	96(%rsp), %rax
	movq	%rcx, 72(%rsp)
	movq	%rax, 80(%rsp)
	movq	72(%rsp), %rax
	movq	80(%rsp), %rdx
	addq	$104, %rsp
	retq
.LBB9_4:
	movq	64(%rsp), %r8
	movq	32(%rsp), %rdx
	movq	48(%rsp), %rcx
	callq	_ZN4core5slice5index24slice_end_index_len_fail17h79fe82183a1661d8E
	int3
	.seh_endproc

	.def	_ZN107_$LT$core..iter..adapters..fuse..Fuse$LT$I$GT$$u20$as$u20$core..iter..adapters..fuse..FuseImpl$LT$I$GT$$GT$4next17he593053866be7e80E;
	.scl	3;
	.type	32;
	.endef
	.section	.text,"xr",one_only,_ZN107_$LT$core..iter..adapters..fuse..Fuse$LT$I$GT$$u20$as$u20$core..iter..adapters..fuse..FuseImpl$LT$I$GT$$GT$4next17he593053866be7e80E
	.p2align	4, 0x90
_ZN107_$LT$core..iter..adapters..fuse..Fuse$LT$I$GT$$u20$as$u20$core..iter..adapters..fuse..FuseImpl$LT$I$GT$$GT$4next17he593053866be7e80E:
.seh_proc _ZN107_$LT$core..iter..adapters..fuse..Fuse$LT$I$GT$$u20$as$u20$core..iter..adapters..fuse..FuseImpl$LT$I$GT$$GT$4next17he593053866be7e80E
	subq	$72, %rsp
	.seh_stackalloc 72
	.seh_endprologue
	movq	%rcx, %rdx
	movq	%rdx, 32(%rsp)
	movl	$1, %eax
	xorl	%ecx, %ecx
	cmpl	$1114112, 60(%rdx)
	cmoveq	%rcx, %rax
	cmpq	$0, %rax
	jne	.LBB10_2
	movq	$0, 64(%rsp)
	jmp	.LBB10_3
.LBB10_2:
	movq	32(%rsp), %rax
	movq	%rax, 64(%rsp)
.LBB10_3:
	movq	64(%rsp), %rdx
	movl	$1, %eax
	xorl	%ecx, %ecx
	cmpq	$0, %rdx
	cmoveq	%rcx, %rax
	cmpq	$0, %rax
	jne	.LBB10_5
	movq	$0, 56(%rsp)
	jmp	.LBB10_6
.LBB10_5:
	movq	64(%rsp), %rax
	movq	%rax, 56(%rsp)
.LBB10_6:
	movq	56(%rsp), %rdx
	xorl	%eax, %eax
	movl	$1, %ecx
	cmpq	$0, %rdx
	cmoveq	%rcx, %rax
	cmpq	$0, %rax
	jne	.LBB10_8
	movq	56(%rsp), %rcx
	callq	_ZN102_$LT$core..iter..adapters..map..Map$LT$I$C$F$GT$$u20$as$u20$core..iter..traits..iterator..Iterator$GT$4next17h54b5eb7c494faa41E
	movq	%rdx, 48(%rsp)
	movq	%rax, 40(%rsp)
	jmp	.LBB10_9
.LBB10_8:
	movq	$0, 40(%rsp)
.LBB10_9:
	movq	40(%rsp), %rax
	movq	48(%rsp), %rdx
	addq	$72, %rsp
	retq
	.seh_endproc

	.def	_ZN108_$LT$core..iter..adapters..filter..Filter$LT$I$C$P$GT$$u20$as$u20$core..iter..traits..iterator..Iterator$GT$5count17h48b24a2da4ee8982E;
	.scl	3;
	.type	32;
	.endef
	.section	.text,"xr",one_only,_ZN108_$LT$core..iter..adapters..filter..Filter$LT$I$C$P$GT$$u20$as$u20$core..iter..traits..iterator..Iterator$GT$5count17h48b24a2da4ee8982E
	.p2align	4, 0x90
_ZN108_$LT$core..iter..adapters..filter..Filter$LT$I$C$P$GT$$u20$as$u20$core..iter..traits..iterator..Iterator$GT$5count17h48b24a2da4ee8982E:
.Lfunc_begin1:
.seh_proc _ZN108_$LT$core..iter..adapters..filter..Filter$LT$I$C$P$GT$$u20$as$u20$core..iter..traits..iterator..Iterator$GT$5count17h48b24a2da4ee8982E
	.seh_handler __CxxFrameHandler3, @unwind, @except
	pushq	%rbp
	.seh_pushreg %rbp
	subq	$80, %rsp
	.seh_stackalloc 80
	leaq	80(%rsp), %rbp
	.seh_setframe %rbp, 80
	.seh_endprologue
	movq	$-2, -8(%rbp)
	movq	(%rcx), %rax
	movq	8(%rcx), %rdx
	movq	16(%rcx), %r8
	movq	%rax, -16(%rbp)
	movq	-16(%rbp), %r9
.Ltmp2:
	leaq	-40(%rbp), %rcx
	callq	_ZN4core4iter6traits8iterator8Iterator3map17h1863bfcde30a18f0E
.Ltmp3:
	jmp	.LBB11_2
.LBB11_2:
	leaq	-40(%rbp), %rcx
	xorl	%eax, %eax
	movl	%eax, %edx
	callq	_ZN102_$LT$core..iter..adapters..map..Map$LT$I$C$F$GT$$u20$as$u20$core..iter..traits..iterator..Iterator$GT$4fold17h5729dade3f6c5873E
	nop
	addq	$80, %rsp
	popq	%rbp
	retq
	.seh_handlerdata
	.long	($cppxdata$_ZN108_$LT$core..iter..adapters..filter..Filter$LT$I$C$P$GT$$u20$as$u20$core..iter..traits..iterator..Iterator$GT$5count17h48b24a2da4ee8982E)@IMGREL
	.section	.text,"xr",one_only,_ZN108_$LT$core..iter..adapters..filter..Filter$LT$I$C$P$GT$$u20$as$u20$core..iter..traits..iterator..Iterator$GT$5count17h48b24a2da4ee8982E
	.seh_endproc
	.def	"?dtor$1@?0?_ZN108_$LT$core..iter..adapters..filter..Filter$LT$I$C$P$GT$$u20$as$u20$core..iter..traits..iterator..Iterator$GT$5count17h48b24a2da4ee8982E@4HA";
	.scl	3;
	.type	32;
	.endef
	.p2align	4, 0x90
"?dtor$1@?0?_ZN108_$LT$core..iter..adapters..filter..Filter$LT$I$C$P$GT$$u20$as$u20$core..iter..traits..iterator..Iterator$GT$5count17h48b24a2da4ee8982E@4HA":
.seh_proc "?dtor$1@?0?_ZN108_$LT$core..iter..adapters..filter..Filter$LT$I$C$P$GT$$u20$as$u20$core..iter..traits..iterator..Iterator$GT$5count17h48b24a2da4ee8982E@4HA"
.LBB11_1:
	movq	%rdx, 16(%rsp)
	pushq	%rbp
	.seh_pushreg %rbp
	subq	$32, %rsp
	.seh_stackalloc 32
	leaq	80(%rdx), %rbp
	.seh_endprologue
	addq	$32, %rsp
	popq	%rbp
	retq
.Lfunc_end1:
	.seh_handlerdata
	.section	.text,"xr",one_only,_ZN108_$LT$core..iter..adapters..filter..Filter$LT$I$C$P$GT$$u20$as$u20$core..iter..traits..iterator..Iterator$GT$5count17h48b24a2da4ee8982E
	.seh_endproc
	.section	.xdata,"dr",associative,_ZN108_$LT$core..iter..adapters..filter..Filter$LT$I$C$P$GT$$u20$as$u20$core..iter..traits..iterator..Iterator$GT$5count17h48b24a2da4ee8982E
	.p2align	2, 0x0
$cppxdata$_ZN108_$LT$core..iter..adapters..filter..Filter$LT$I$C$P$GT$$u20$as$u20$core..iter..traits..iterator..Iterator$GT$5count17h48b24a2da4ee8982E:
	.long	429065506
	.long	1
	.long	($stateUnwindMap$_ZN108_$LT$core..iter..adapters..filter..Filter$LT$I$C$P$GT$$u20$as$u20$core..iter..traits..iterator..Iterator$GT$5count17h48b24a2da4ee8982E)@IMGREL
	.long	0
	.long	0
	.long	3
	.long	($ip2state$_ZN108_$LT$core..iter..adapters..filter..Filter$LT$I$C$P$GT$$u20$as$u20$core..iter..traits..iterator..Iterator$GT$5count17h48b24a2da4ee8982E)@IMGREL
	.long	72
	.long	0
	.long	1
$stateUnwindMap$_ZN108_$LT$core..iter..adapters..filter..Filter$LT$I$C$P$GT$$u20$as$u20$core..iter..traits..iterator..Iterator$GT$5count17h48b24a2da4ee8982E:
	.long	-1
	.long	"?dtor$1@?0?_ZN108_$LT$core..iter..adapters..filter..Filter$LT$I$C$P$GT$$u20$as$u20$core..iter..traits..iterator..Iterator$GT$5count17h48b24a2da4ee8982E@4HA"@IMGREL
$ip2state$_ZN108_$LT$core..iter..adapters..filter..Filter$LT$I$C$P$GT$$u20$as$u20$core..iter..traits..iterator..Iterator$GT$5count17h48b24a2da4ee8982E:
	.long	.Lfunc_begin1@IMGREL
	.long	-1
	.long	.Ltmp2@IMGREL+1
	.long	0
	.long	.Ltmp3@IMGREL+1
	.long	-1
	.section	.text,"xr",one_only,_ZN108_$LT$core..iter..adapters..filter..Filter$LT$I$C$P$GT$$u20$as$u20$core..iter..traits..iterator..Iterator$GT$5count17h48b24a2da4ee8982E

	.def	_ZN108_$LT$core..iter..adapters..filter..Filter$LT$I$C$P$GT$$u20$as$u20$core..iter..traits..iterator..Iterator$GT$5count8to_usize28_$u7b$$u7b$closure$u7d$$u7d$17h71e73de4e63eaebeE;
	.scl	3;
	.type	32;
	.endef
	.section	.text,"xr",one_only,_ZN108_$LT$core..iter..adapters..filter..Filter$LT$I$C$P$GT$$u20$as$u20$core..iter..traits..iterator..Iterator$GT$5count8to_usize28_$u7b$$u7b$closure$u7d$$u7d$17h71e73de4e63eaebeE
	.p2align	4, 0x90
_ZN108_$LT$core..iter..adapters..filter..Filter$LT$I$C$P$GT$$u20$as$u20$core..iter..traits..iterator..Iterator$GT$5count8to_usize28_$u7b$$u7b$closure$u7d$$u7d$17h71e73de4e63eaebeE:
.Lfunc_begin2:
.seh_proc _ZN108_$LT$core..iter..adapters..filter..Filter$LT$I$C$P$GT$$u20$as$u20$core..iter..traits..iterator..Iterator$GT$5count8to_usize28_$u7b$$u7b$closure$u7d$$u7d$17h71e73de4e63eaebeE
	.seh_handler __CxxFrameHandler3, @unwind, @except
	pushq	%rbp
	.seh_pushreg %rbp
	subq	$64, %rsp
	.seh_stackalloc 64
	leaq	64(%rsp), %rbp
	.seh_setframe %rbp, 64
	.seh_endprologue
	movq	$-2, -8(%rbp)
	movq	%rdx, -24(%rbp)
	leaq	-24(%rbp), %rax
	movq	%rax, -16(%rbp)
	movq	-16(%rbp), %rdx
.Ltmp4:
	callq	_ZN4main4main28_$u7b$$u7b$closure$u7d$$u7d$17h550a8725c8f39ab6E
.Ltmp5:
	movb	%al, -25(%rbp)
	jmp	.LBB12_2
.LBB12_2:
	movb	-25(%rbp), %al
	andb	$1, %al
	movzbl	%al, %eax
	addq	$64, %rsp
	popq	%rbp
	retq
	.seh_handlerdata
	.long	($cppxdata$_ZN108_$LT$core..iter..adapters..filter..Filter$LT$I$C$P$GT$$u20$as$u20$core..iter..traits..iterator..Iterator$GT$5count8to_usize28_$u7b$$u7b$closure$u7d$$u7d$17h71e73de4e63eaebeE)@IMGREL
	.section	.text,"xr",one_only,_ZN108_$LT$core..iter..adapters..filter..Filter$LT$I$C$P$GT$$u20$as$u20$core..iter..traits..iterator..Iterator$GT$5count8to_usize28_$u7b$$u7b$closure$u7d$$u7d$17h71e73de4e63eaebeE
	.seh_endproc
	.def	"?dtor$1@?0?_ZN108_$LT$core..iter..adapters..filter..Filter$LT$I$C$P$GT$$u20$as$u20$core..iter..traits..iterator..Iterator$GT$5count8to_usize28_$u7b$$u7b$closure$u7d$$u7d$17h71e73de4e63eaebeE@4HA";
	.scl	3;
	.type	32;
	.endef
	.p2align	4, 0x90
"?dtor$1@?0?_ZN108_$LT$core..iter..adapters..filter..Filter$LT$I$C$P$GT$$u20$as$u20$core..iter..traits..iterator..Iterator$GT$5count8to_usize28_$u7b$$u7b$closure$u7d$$u7d$17h71e73de4e63eaebeE@4HA":
.seh_proc "?dtor$1@?0?_ZN108_$LT$core..iter..adapters..filter..Filter$LT$I$C$P$GT$$u20$as$u20$core..iter..traits..iterator..Iterator$GT$5count8to_usize28_$u7b$$u7b$closure$u7d$$u7d$17h71e73de4e63eaebeE@4HA"
.LBB12_1:
	movq	%rdx, 16(%rsp)
	pushq	%rbp
	.seh_pushreg %rbp
	subq	$32, %rsp
	.seh_stackalloc 32
	leaq	64(%rdx), %rbp
	.seh_endprologue
	addq	$32, %rsp
	popq	%rbp
	retq
.Lfunc_end2:
	.seh_handlerdata
	.section	.text,"xr",one_only,_ZN108_$LT$core..iter..adapters..filter..Filter$LT$I$C$P$GT$$u20$as$u20$core..iter..traits..iterator..Iterator$GT$5count8to_usize28_$u7b$$u7b$closure$u7d$$u7d$17h71e73de4e63eaebeE
	.seh_endproc
	.section	.xdata,"dr",associative,_ZN108_$LT$core..iter..adapters..filter..Filter$LT$I$C$P$GT$$u20$as$u20$core..iter..traits..iterator..Iterator$GT$5count8to_usize28_$u7b$$u7b$closure$u7d$$u7d$17h71e73de4e63eaebeE
	.p2align	2, 0x0
$cppxdata$_ZN108_$LT$core..iter..adapters..filter..Filter$LT$I$C$P$GT$$u20$as$u20$core..iter..traits..iterator..Iterator$GT$5count8to_usize28_$u7b$$u7b$closure$u7d$$u7d$17h71e73de4e63eaebeE:
	.long	429065506
	.long	1
	.long	($stateUnwindMap$_ZN108_$LT$core..iter..adapters..filter..Filter$LT$I$C$P$GT$$u20$as$u20$core..iter..traits..iterator..Iterator$GT$5count8to_usize28_$u7b$$u7b$closure$u7d$$u7d$17h71e73de4e63eaebeE)@IMGREL
	.long	0
	.long	0
	.long	3
	.long	($ip2state$_ZN108_$LT$core..iter..adapters..filter..Filter$LT$I$C$P$GT$$u20$as$u20$core..iter..traits..iterator..Iterator$GT$5count8to_usize28_$u7b$$u7b$closure$u7d$$u7d$17h71e73de4e63eaebeE)@IMGREL
	.long	56
	.long	0
	.long	1
$stateUnwindMap$_ZN108_$LT$core..iter..adapters..filter..Filter$LT$I$C$P$GT$$u20$as$u20$core..iter..traits..iterator..Iterator$GT$5count8to_usize28_$u7b$$u7b$closure$u7d$$u7d$17h71e73de4e63eaebeE:
	.long	-1
	.long	"?dtor$1@?0?_ZN108_$LT$core..iter..adapters..filter..Filter$LT$I$C$P$GT$$u20$as$u20$core..iter..traits..iterator..Iterator$GT$5count8to_usize28_$u7b$$u7b$closure$u7d$$u7d$17h71e73de4e63eaebeE@4HA"@IMGREL
$ip2state$_ZN108_$LT$core..iter..adapters..filter..Filter$LT$I$C$P$GT$$u20$as$u20$core..iter..traits..iterator..Iterator$GT$5count8to_usize28_$u7b$$u7b$closure$u7d$$u7d$17h71e73de4e63eaebeE:
	.long	.Lfunc_begin2@IMGREL
	.long	-1
	.long	.Ltmp4@IMGREL+1
	.long	0
	.long	.Ltmp5@IMGREL+1
	.long	-1
	.section	.text,"xr",one_only,_ZN108_$LT$core..iter..adapters..filter..Filter$LT$I$C$P$GT$$u20$as$u20$core..iter..traits..iterator..Iterator$GT$5count8to_usize28_$u7b$$u7b$closure$u7d$$u7d$17h71e73de4e63eaebeE

	.def	_ZN111_$LT$alloc..vec..Vec$LT$T$GT$$u20$as$u20$alloc..vec..spec_from_iter_nested..SpecFromIterNested$LT$T$C$I$GT$$GT$9from_iter17haab2ccea1c1070d2E;
	.scl	3;
	.type	32;
	.endef
	.section	.text,"xr",one_only,_ZN111_$LT$alloc..vec..Vec$LT$T$GT$$u20$as$u20$alloc..vec..spec_from_iter_nested..SpecFromIterNested$LT$T$C$I$GT$$GT$9from_iter17haab2ccea1c1070d2E
	.p2align	4, 0x90
_ZN111_$LT$alloc..vec..Vec$LT$T$GT$$u20$as$u20$alloc..vec..spec_from_iter_nested..SpecFromIterNested$LT$T$C$I$GT$$GT$9from_iter17haab2ccea1c1070d2E:
.Lfunc_begin3:
.seh_proc _ZN111_$LT$alloc..vec..Vec$LT$T$GT$$u20$as$u20$alloc..vec..spec_from_iter_nested..SpecFromIterNested$LT$T$C$I$GT$$GT$9from_iter17haab2ccea1c1070d2E
	.seh_handler __CxxFrameHandler3, @unwind, @except
	pushq	%rbp
	.seh_pushreg %rbp
	subq	$304, %rsp
	.seh_stackalloc 304
	leaq	128(%rsp), %rbp
	.seh_setframe %rbp, 128
	.seh_endprologue
	movq	$-2, 168(%rbp)
	movq	%rdx, -64(%rbp)
	movq	%rcx, %rax
	movq	-64(%rbp), %rcx
	movq	%rax, -56(%rbp)
	movq	%rax, -48(%rbp)
	movb	$1, 159(%rbp)
.Ltmp6:
	callq	_ZN114_$LT$core..iter..adapters..flatten..FlatMap$LT$I$C$U$C$F$GT$$u20$as$u20$core..iter..traits..iterator..Iterator$GT$4next17h48739dc6eb98899bE
.Ltmp7:
	movb	%dl, -34(%rbp)
	movb	%al, -33(%rbp)
	jmp	.LBB13_2
.LBB13_2:
	movb	-34(%rbp), %al
	movb	-33(%rbp), %cl
	movb	%cl, -2(%rbp)
	movb	%al, -1(%rbp)
	movb	-2(%rbp), %al
	andb	$1, %al
	movzbl	%al, %eax
	cmpq	$0, %rax
	jne	.LBB13_4
	movq	-56(%rbp), %rax
	movq	$0, (%rax)
	movl	$1, %ecx
	movq	%rcx, 8(%rax)
	movq	$0, 16(%rax)
	jmp	.LBB13_5
.LBB13_4:
	movq	-64(%rbp), %rdx
	movb	-1(%rbp), %al
	movb	%al, -65(%rbp)
.Ltmp8:
	movq	%rbp, %rcx
	callq	_ZN114_$LT$core..iter..adapters..flatten..FlatMap$LT$I$C$U$C$F$GT$$u20$as$u20$core..iter..traits..iterator..Iterator$GT$9size_hint17h5964ddf8aea699d2E
.Ltmp9:
	jmp	.LBB13_7
.LBB13_5:
	movq	-48(%rbp), %rax
	addq	$304, %rsp
	popq	%rbp
	retq
.LBB13_7:
	movq	(%rbp), %rax
	incq	%rax
	movq	$-1, %rcx
	cmoveq	%rcx, %rax
	movq	%rax, 160(%rbp)
	movq	160(%rbp), %rdx
.Ltmp10:
	movl	$8, %ecx
	callq	_ZN4core3cmp6max_by17h6be5526ef6b6b243E
.Ltmp11:
	movq	%rax, -80(%rbp)
	jmp	.LBB13_8
.LBB13_8:
.Ltmp12:
	movq	-80(%rbp), %rcx
	xorl	%eax, %eax
	movb	%al, %dl
	callq	_ZN5alloc7raw_vec19RawVec$LT$T$C$A$GT$11allocate_in17h885b1f8491ebd08aE
.Ltmp13:
	movq	%rdx, -96(%rbp)
	movq	%rax, -88(%rbp)
	jmp	.LBB13_9
.LBB13_9:
	movq	-64(%rbp), %rax
	movb	-65(%rbp), %dl
	movq	-96(%rbp), %rcx
	movq	-88(%rbp), %r8
	movq	%r8, 24(%rbp)
	movq	%rcx, 32(%rbp)
	movq	$0, 40(%rbp)
	movq	32(%rbp), %rcx
	movb	%dl, (%rcx)
	movq	$1, 40(%rbp)
	movq	40(%rbp), %rcx
	movq	%rcx, -16(%rbp)
	movups	24(%rbp), %xmm0
	movaps	%xmm0, -32(%rbp)
	movb	$0, 159(%rbp)
	movq	96(%rax), %rcx
	movq	%rcx, 144(%rbp)
	movups	80(%rax), %xmm0
	movaps	%xmm0, 128(%rbp)
	movups	64(%rax), %xmm0
	movaps	%xmm0, 112(%rbp)
	movups	(%rax), %xmm0
	movups	16(%rax), %xmm1
	movups	32(%rax), %xmm2
	movups	48(%rax), %xmm3
	movaps	%xmm3, 96(%rbp)
	movaps	%xmm2, 80(%rbp)
	movaps	%xmm1, 64(%rbp)
	movaps	%xmm0, 48(%rbp)
.Ltmp14:
	leaq	-32(%rbp), %rcx
	leaq	48(%rbp), %rdx
	callq	_ZN97_$LT$alloc..vec..Vec$LT$T$C$A$GT$$u20$as$u20$alloc..vec..spec_extend..SpecExtend$LT$T$C$I$GT$$GT$11spec_extend17h4395a54e7a3ee118E
.Ltmp15:
	jmp	.LBB13_11
.LBB13_11:
	movq	-56(%rbp), %rax
	movq	-32(%rbp), %rcx
	movq	%rcx, (%rax)
	movq	-24(%rbp), %rcx
	movq	%rcx, 8(%rax)
	movq	-16(%rbp), %rcx
	movq	%rcx, 16(%rax)
	jmp	.LBB13_5
	.seh_handlerdata
	.long	($cppxdata$_ZN111_$LT$alloc..vec..Vec$LT$T$GT$$u20$as$u20$alloc..vec..spec_from_iter_nested..SpecFromIterNested$LT$T$C$I$GT$$GT$9from_iter17haab2ccea1c1070d2E)@IMGREL
	.section	.text,"xr",one_only,_ZN111_$LT$alloc..vec..Vec$LT$T$GT$$u20$as$u20$alloc..vec..spec_from_iter_nested..SpecFromIterNested$LT$T$C$I$GT$$GT$9from_iter17haab2ccea1c1070d2E
	.seh_endproc
	.def	"?dtor$1@?0?_ZN111_$LT$alloc..vec..Vec$LT$T$GT$$u20$as$u20$alloc..vec..spec_from_iter_nested..SpecFromIterNested$LT$T$C$I$GT$$GT$9from_iter17haab2ccea1c1070d2E@4HA";
	.scl	3;
	.type	32;
	.endef
	.p2align	4, 0x90
"?dtor$1@?0?_ZN111_$LT$alloc..vec..Vec$LT$T$GT$$u20$as$u20$alloc..vec..spec_from_iter_nested..SpecFromIterNested$LT$T$C$I$GT$$GT$9from_iter17haab2ccea1c1070d2E@4HA":
.seh_proc "?dtor$1@?0?_ZN111_$LT$alloc..vec..Vec$LT$T$GT$$u20$as$u20$alloc..vec..spec_from_iter_nested..SpecFromIterNested$LT$T$C$I$GT$$GT$9from_iter17haab2ccea1c1070d2E@4HA"
.LBB13_1:
	movq	%rdx, 16(%rsp)
	pushq	%rbp
	.seh_pushreg %rbp
	subq	$32, %rsp
	.seh_stackalloc 32
	leaq	128(%rdx), %rbp
	.seh_endprologue
	testb	$1, 159(%rbp)
	jne	.LBB13_13
	jmp	.LBB13_12
.LBB13_12:
	addq	$32, %rsp
	popq	%rbp
	retq
.LBB13_13:
	jmp	.LBB13_12
	.seh_handlerdata
	.section	.text,"xr",one_only,_ZN111_$LT$alloc..vec..Vec$LT$T$GT$$u20$as$u20$alloc..vec..spec_from_iter_nested..SpecFromIterNested$LT$T$C$I$GT$$GT$9from_iter17haab2ccea1c1070d2E
	.seh_endproc
	.def	"?dtor$6@?0?_ZN111_$LT$alloc..vec..Vec$LT$T$GT$$u20$as$u20$alloc..vec..spec_from_iter_nested..SpecFromIterNested$LT$T$C$I$GT$$GT$9from_iter17haab2ccea1c1070d2E@4HA";
	.scl	3;
	.type	32;
	.endef
	.p2align	4, 0x90
"?dtor$6@?0?_ZN111_$LT$alloc..vec..Vec$LT$T$GT$$u20$as$u20$alloc..vec..spec_from_iter_nested..SpecFromIterNested$LT$T$C$I$GT$$GT$9from_iter17haab2ccea1c1070d2E@4HA":
.seh_proc "?dtor$6@?0?_ZN111_$LT$alloc..vec..Vec$LT$T$GT$$u20$as$u20$alloc..vec..spec_from_iter_nested..SpecFromIterNested$LT$T$C$I$GT$$GT$9from_iter17haab2ccea1c1070d2E@4HA"
.LBB13_6:
	movq	%rdx, 16(%rsp)
	pushq	%rbp
	.seh_pushreg %rbp
	subq	$32, %rsp
	.seh_stackalloc 32
	leaq	128(%rdx), %rbp
	.seh_endprologue
	addq	$32, %rsp
	popq	%rbp
	retq
	.seh_handlerdata
	.section	.text,"xr",one_only,_ZN111_$LT$alloc..vec..Vec$LT$T$GT$$u20$as$u20$alloc..vec..spec_from_iter_nested..SpecFromIterNested$LT$T$C$I$GT$$GT$9from_iter17haab2ccea1c1070d2E
	.seh_endproc
	.def	"?dtor$10@?0?_ZN111_$LT$alloc..vec..Vec$LT$T$GT$$u20$as$u20$alloc..vec..spec_from_iter_nested..SpecFromIterNested$LT$T$C$I$GT$$GT$9from_iter17haab2ccea1c1070d2E@4HA";
	.scl	3;
	.type	32;
	.endef
	.p2align	4, 0x90
"?dtor$10@?0?_ZN111_$LT$alloc..vec..Vec$LT$T$GT$$u20$as$u20$alloc..vec..spec_from_iter_nested..SpecFromIterNested$LT$T$C$I$GT$$GT$9from_iter17haab2ccea1c1070d2E@4HA":
.seh_proc "?dtor$10@?0?_ZN111_$LT$alloc..vec..Vec$LT$T$GT$$u20$as$u20$alloc..vec..spec_from_iter_nested..SpecFromIterNested$LT$T$C$I$GT$$GT$9from_iter17haab2ccea1c1070d2E@4HA"
.LBB13_10:
	movq	%rdx, 16(%rsp)
	pushq	%rbp
	.seh_pushreg %rbp
	subq	$32, %rsp
	.seh_stackalloc 32
	leaq	128(%rdx), %rbp
	.seh_endprologue
	leaq	-32(%rbp), %rcx
	callq	_ZN4core3ptr46drop_in_place$LT$alloc..vec..Vec$LT$u8$GT$$GT$17h06af24bcb6465c3aE
	nop
	addq	$32, %rsp
	popq	%rbp
	retq
.Lfunc_end3:
	.seh_handlerdata
	.section	.text,"xr",one_only,_ZN111_$LT$alloc..vec..Vec$LT$T$GT$$u20$as$u20$alloc..vec..spec_from_iter_nested..SpecFromIterNested$LT$T$C$I$GT$$GT$9from_iter17haab2ccea1c1070d2E
	.seh_endproc
	.section	.xdata,"dr",associative,_ZN111_$LT$alloc..vec..Vec$LT$T$GT$$u20$as$u20$alloc..vec..spec_from_iter_nested..SpecFromIterNested$LT$T$C$I$GT$$GT$9from_iter17haab2ccea1c1070d2E
	.p2align	2, 0x0
$cppxdata$_ZN111_$LT$alloc..vec..Vec$LT$T$GT$$u20$as$u20$alloc..vec..spec_from_iter_nested..SpecFromIterNested$LT$T$C$I$GT$$GT$9from_iter17haab2ccea1c1070d2E:
	.long	429065506
	.long	3
	.long	($stateUnwindMap$_ZN111_$LT$alloc..vec..Vec$LT$T$GT$$u20$as$u20$alloc..vec..spec_from_iter_nested..SpecFromIterNested$LT$T$C$I$GT$$GT$9from_iter17haab2ccea1c1070d2E)@IMGREL
	.long	0
	.long	0
	.long	5
	.long	($ip2state$_ZN111_$LT$alloc..vec..Vec$LT$T$GT$$u20$as$u20$alloc..vec..spec_from_iter_nested..SpecFromIterNested$LT$T$C$I$GT$$GT$9from_iter17haab2ccea1c1070d2E)@IMGREL
	.long	296
	.long	0
	.long	1
$stateUnwindMap$_ZN111_$LT$alloc..vec..Vec$LT$T$GT$$u20$as$u20$alloc..vec..spec_from_iter_nested..SpecFromIterNested$LT$T$C$I$GT$$GT$9from_iter17haab2ccea1c1070d2E:
	.long	-1
	.long	"?dtor$1@?0?_ZN111_$LT$alloc..vec..Vec$LT$T$GT$$u20$as$u20$alloc..vec..spec_from_iter_nested..SpecFromIterNested$LT$T$C$I$GT$$GT$9from_iter17haab2ccea1c1070d2E@4HA"@IMGREL
	.long	0
	.long	"?dtor$6@?0?_ZN111_$LT$alloc..vec..Vec$LT$T$GT$$u20$as$u20$alloc..vec..spec_from_iter_nested..SpecFromIterNested$LT$T$C$I$GT$$GT$9from_iter17haab2ccea1c1070d2E@4HA"@IMGREL
	.long	0
	.long	"?dtor$10@?0?_ZN111_$LT$alloc..vec..Vec$LT$T$GT$$u20$as$u20$alloc..vec..spec_from_iter_nested..SpecFromIterNested$LT$T$C$I$GT$$GT$9from_iter17haab2ccea1c1070d2E@4HA"@IMGREL
$ip2state$_ZN111_$LT$alloc..vec..Vec$LT$T$GT$$u20$as$u20$alloc..vec..spec_from_iter_nested..SpecFromIterNested$LT$T$C$I$GT$$GT$9from_iter17haab2ccea1c1070d2E:
	.long	.Lfunc_begin3@IMGREL
	.long	-1
	.long	.Ltmp6@IMGREL+1
	.long	0
	.long	.Ltmp8@IMGREL+1
	.long	1
	.long	.Ltmp14@IMGREL+1
	.long	2
	.long	.Ltmp15@IMGREL+1
	.long	-1
	.section	.text,"xr",one_only,_ZN111_$LT$alloc..vec..Vec$LT$T$GT$$u20$as$u20$alloc..vec..spec_from_iter_nested..SpecFromIterNested$LT$T$C$I$GT$$GT$9from_iter17haab2ccea1c1070d2E

	.def	_ZN114_$LT$core..iter..adapters..flatten..FlatMap$LT$I$C$U$C$F$GT$$u20$as$u20$core..iter..traits..iterator..Iterator$GT$4next17h48739dc6eb98899bE;
	.scl	3;
	.type	32;
	.endef
	.section	.text,"xr",one_only,_ZN114_$LT$core..iter..adapters..flatten..FlatMap$LT$I$C$U$C$F$GT$$u20$as$u20$core..iter..traits..iterator..Iterator$GT$4next17h48739dc6eb98899bE
	.p2align	4, 0x90
_ZN114_$LT$core..iter..adapters..flatten..FlatMap$LT$I$C$U$C$F$GT$$u20$as$u20$core..iter..traits..iterator..Iterator$GT$4next17h48739dc6eb98899bE:
.seh_proc _ZN114_$LT$core..iter..adapters..flatten..FlatMap$LT$I$C$U$C$F$GT$$u20$as$u20$core..iter..traits..iterator..Iterator$GT$4next17h48739dc6eb98899bE
	subq	$40, %rsp
	.seh_stackalloc 40
	.seh_endprologue
	callq	_ZN116_$LT$core..iter..adapters..flatten..FlattenCompat$LT$I$C$U$GT$$u20$as$u20$core..iter..traits..iterator..Iterator$GT$4next17h0b8dae61856f9c7eE
	andb	$1, %al
	addq	$40, %rsp
	retq
	.seh_endproc

	.def	_ZN114_$LT$core..iter..adapters..flatten..FlatMap$LT$I$C$U$C$F$GT$$u20$as$u20$core..iter..traits..iterator..Iterator$GT$9size_hint17h5964ddf8aea699d2E;
	.scl	3;
	.type	32;
	.endef
	.section	.text,"xr",one_only,_ZN114_$LT$core..iter..adapters..flatten..FlatMap$LT$I$C$U$C$F$GT$$u20$as$u20$core..iter..traits..iterator..Iterator$GT$9size_hint17h5964ddf8aea699d2E
	.p2align	4, 0x90
_ZN114_$LT$core..iter..adapters..flatten..FlatMap$LT$I$C$U$C$F$GT$$u20$as$u20$core..iter..traits..iterator..Iterator$GT$9size_hint17h5964ddf8aea699d2E:
.seh_proc _ZN114_$LT$core..iter..adapters..flatten..FlatMap$LT$I$C$U$C$F$GT$$u20$as$u20$core..iter..traits..iterator..Iterator$GT$9size_hint17h5964ddf8aea699d2E
	subq	$40, %rsp
	.seh_stackalloc 40
	.seh_endprologue
	movq	%rcx, %rax
	movq	%rax, 32(%rsp)
	callq	_ZN116_$LT$core..iter..adapters..flatten..FlattenCompat$LT$I$C$U$GT$$u20$as$u20$core..iter..traits..iterator..Iterator$GT$9size_hint17h1094d3d0b6508dbcE
	movq	32(%rsp), %rax
	addq	$40, %rsp
	retq
	.seh_endproc

	.def	_ZN116_$LT$core..iter..adapters..flatten..FlattenCompat$LT$I$C$U$GT$$u20$as$u20$core..iter..traits..iterator..Iterator$GT$4next17h0b8dae61856f9c7eE;
	.scl	3;
	.type	32;
	.endef
	.section	.text,"xr",one_only,_ZN116_$LT$core..iter..adapters..flatten..FlattenCompat$LT$I$C$U$GT$$u20$as$u20$core..iter..traits..iterator..Iterator$GT$4next17h0b8dae61856f9c7eE
	.p2align	4, 0x90
_ZN116_$LT$core..iter..adapters..flatten..FlattenCompat$LT$I$C$U$GT$$u20$as$u20$core..iter..traits..iterator..Iterator$GT$4next17h0b8dae61856f9c7eE:
.seh_proc _ZN116_$LT$core..iter..adapters..flatten..FlattenCompat$LT$I$C$U$GT$$u20$as$u20$core..iter..traits..iterator..Iterator$GT$4next17h0b8dae61856f9c7eE
	subq	$88, %rsp
	.seh_stackalloc 88
	.seh_endprologue
	movq	%rcx, 40(%rsp)
.LBB16_1:
	movq	40(%rsp), %rcx
	callq	_ZN4core4iter8adapters7flatten17and_then_or_clear17h702f5fa6a3494592E
	movb	%dl, 55(%rsp)
	movb	%al, 54(%rsp)
	movb	54(%rsp), %al
	testb	$1, %al
	jne	.LBB16_2
	jmp	.LBB16_3
.LBB16_2:
	movb	54(%rsp), %cl
	movb	55(%rsp), %al
	andb	$1, %cl
	movb	%cl, 52(%rsp)
	movb	%al, 53(%rsp)
	jmp	.LBB16_4
.LBB16_3:
	movq	40(%rsp), %rcx
	addq	$32, %rcx
	callq	_ZN107_$LT$core..iter..adapters..fuse..Fuse$LT$I$GT$$u20$as$u20$core..iter..adapters..fuse..FuseImpl$LT$I$GT$$GT$4next17he593053866be7e80E
	movq	%rdx, 64(%rsp)
	movq	%rax, 56(%rsp)
	movq	56(%rsp), %rax
	cmpq	$0, %rax
	sete	%al
	testb	$1, %al
	jne	.LBB16_5
	jmp	.LBB16_6
.LBB16_4:
	movb	52(%rsp), %al
	movb	53(%rsp), %dl
	addq	$88, %rsp
	retq
.LBB16_5:
	movq	40(%rsp), %rcx
	addq	$16, %rcx
	callq	_ZN4core4iter8adapters7flatten17and_then_or_clear17h702f5fa6a3494592E
	movb	%dl, 53(%rsp)
	movb	%al, 52(%rsp)
	jmp	.LBB16_4
.LBB16_6:
	movq	56(%rsp), %rcx
	movq	64(%rsp), %rdx
	callq	_ZN63_$LT$I$u20$as$u20$core..iter..traits..collect..IntoIterator$GT$9into_iter17hc3bb217f1d358d13E
	movq	%rax, %rcx
	movq	40(%rsp), %rax
	movq	%rcx, 72(%rsp)
	movq	%rdx, 80(%rsp)
	movq	72(%rsp), %rdx
	movq	80(%rsp), %rcx
	movq	%rdx, (%rax)
	movq	%rcx, 8(%rax)
	jmp	.LBB16_1
	.seh_endproc

	.def	_ZN116_$LT$core..iter..adapters..flatten..FlattenCompat$LT$I$C$U$GT$$u20$as$u20$core..iter..traits..iterator..Iterator$GT$9size_hint17h1094d3d0b6508dbcE;
	.scl	3;
	.type	32;
	.endef
	.section	.text,"xr",one_only,_ZN116_$LT$core..iter..adapters..flatten..FlattenCompat$LT$I$C$U$GT$$u20$as$u20$core..iter..traits..iterator..Iterator$GT$9size_hint17h1094d3d0b6508dbcE
	.p2align	4, 0x90
_ZN116_$LT$core..iter..adapters..flatten..FlattenCompat$LT$I$C$U$GT$$u20$as$u20$core..iter..traits..iterator..Iterator$GT$9size_hint17h1094d3d0b6508dbcE:
.seh_proc _ZN116_$LT$core..iter..adapters..flatten..FlattenCompat$LT$I$C$U$GT$$u20$as$u20$core..iter..traits..iterator..Iterator$GT$9size_hint17h1094d3d0b6508dbcE
	subq	$664, %rsp
	.seh_stackalloc 664
	.seh_endprologue
	movq	%rdx, 120(%rsp)
	movq	%rcx, 128(%rsp)
	movq	%rcx, 136(%rsp)
	movq	(%rdx), %rdx
	movl	$1, %eax
	xorl	%ecx, %ecx
	cmpq	$0, %rdx
	cmoveq	%rcx, %rax
	cmpq	$0, %rax
	jne	.LBB17_2
	movq	$0, 184(%rsp)
	jmp	.LBB17_3
.LBB17_2:
	movq	120(%rsp), %rax
	movq	%rax, 184(%rsp)
.LBB17_3:
	movq	$0, 224(%rsp)
	movq	$1, 216(%rsp)
	movq	$0, 192(%rsp)
	movq	216(%rsp), %rcx
	movq	224(%rsp), %rax
	movq	%rcx, 200(%rsp)
	movq	%rax, 208(%rsp)
	movq	184(%rsp), %rdx
	leaq	160(%rsp), %rcx
	leaq	192(%rsp), %r8
	callq	_ZN4core6option15Option$LT$T$GT$6map_or17h469f706485dda6b5E
	movq	120(%rsp), %rax
	movq	160(%rsp), %rcx
	movq	%rcx, 112(%rsp)
	movq	168(%rsp), %rdx
	movq	176(%rsp), %rcx
	movq	%rdx, 144(%rsp)
	movq	%rcx, 152(%rsp)
	movq	16(%rax), %rdx
	movl	$1, %eax
	xorl	%ecx, %ecx
	cmpq	$0, %rdx
	cmoveq	%rcx, %rax
	cmpq	$0, %rax
	jne	.LBB17_5
	movq	$0, 272(%rsp)
	jmp	.LBB17_6
.LBB17_5:
	movq	120(%rsp), %rax
	addq	$16, %rax
	movq	%rax, 272(%rsp)
.LBB17_6:
	movq	$0, 312(%rsp)
	movq	$1, 304(%rsp)
	movq	$0, 280(%rsp)
	movq	304(%rsp), %rcx
	movq	312(%rsp), %rax
	movq	%rcx, 288(%rsp)
	movq	%rax, 296(%rsp)
	movq	272(%rsp), %rdx
	leaq	248(%rsp), %rcx
	leaq	280(%rsp), %r8
	callq	_ZN4core6option15Option$LT$T$GT$6map_or17h469f706485dda6b5E
	movq	112(%rsp), %rax
	movq	248(%rsp), %rcx
	movq	256(%rsp), %r8
	movq	264(%rsp), %rdx
	movq	%r8, 232(%rsp)
	movq	%rdx, 240(%rsp)
	addq	%rcx, %rax
	movq	$-1, %rcx
	cmovbq	%rcx, %rax
	movq	%rax, 640(%rsp)
	movq	640(%rsp), %rax
	movq	%rax, 104(%rsp)
	callq	_ZN74_$LT$T$u20$as$u20$core..iter..adapters..flatten..ConstSizeIntoIterator$GT$4size17ha0e47bcb212c57acE
	movq	%rdx, 328(%rsp)
	movq	%rax, 320(%rsp)
	cmpq	$1, 320(%rsp)
	jne	.LBB17_8
	movq	120(%rsp), %rdx
	movq	328(%rsp), %rax
	movq	%rax, 96(%rsp)
	movl	$1, %eax
	xorl	%ecx, %ecx
	cmpl	$1114112, 92(%rdx)
	cmoveq	%rcx, %rax
	cmpq	$0, %rax
	je	.LBB17_9
	jmp	.LBB17_10
.LBB17_8:
	movq	120(%rsp), %rdx
	movl	$1, %eax
	xorl	%ecx, %ecx
	cmpl	$1114112, 92(%rdx)
	cmoveq	%rcx, %rax
	cmpq	$0, %rax
	je	.LBB17_55
	jmp	.LBB17_56
.LBB17_9:
	movq	$0, 600(%rsp)
	movq	$1, 592(%rsp)
	movq	$0, 352(%rsp)
	movq	592(%rsp), %rcx
	movq	600(%rsp), %rax
	movq	%rcx, 360(%rsp)
	movq	%rax, 368(%rsp)
	jmp	.LBB17_11
.LBB17_10:
	movq	120(%rsp), %rdx
	addq	$32, %rdx
	leaq	352(%rsp), %rcx
	callq	_ZN102_$LT$core..iter..adapters..map..Map$LT$I$C$F$GT$$u20$as$u20$core..iter..traits..iterator..Iterator$GT$9size_hint17h092eabaecba3446bE
.LBB17_11:
	movq	96(%rsp), %rdx
	movq	352(%rsp), %rcx
	movq	360(%rsp), %r8
	movq	368(%rsp), %rax
	movq	%r8, 336(%rsp)
	movq	%rax, 344(%rsp)
	callq	_ZN4core3num23_$LT$impl$u20$usize$GT$14saturating_mul17h6aafe4156d96ebf4E
	movq	104(%rsp), %rcx
	addq	%rcx, %rax
	movq	$-1, %rcx
	cmovbq	%rcx, %rax
	movq	%rax, 648(%rsp)
	movq	648(%rsp), %rax
	movq	%rax, 88(%rsp)
	cmpq	$0, 144(%rsp)
	jne	.LBB17_13
	movq	$1, 456(%rsp)
	jmp	.LBB17_14
.LBB17_13:
	movq	152(%rsp), %rax
	movq	%rax, 464(%rsp)
	movq	$0, 456(%rsp)
.LBB17_14:
	cmpq	$0, 456(%rsp)
	jne	.LBB17_16
	movq	464(%rsp), %rax
	movq	%rax, 80(%rsp)
	cmpq	$0, 232(%rsp)
	je	.LBB17_17
	jmp	.LBB17_18
.LBB17_16:
	movq	$0, 376(%rsp)
	jmp	.LBB17_53
.LBB17_17:
	movq	$1, 472(%rsp)
	jmp	.LBB17_19
.LBB17_18:
	movq	240(%rsp), %rax
	movq	%rax, 480(%rsp)
	movq	$0, 472(%rsp)
.LBB17_19:
	cmpq	$0, 472(%rsp)
	jne	.LBB17_21
	movq	80(%rsp), %rax
	addq	480(%rsp), %rax
	movq	%rax, 72(%rsp)
	setb	%al
	andb	$1, %al
	movb	%al, 660(%rsp)
	testb	$1, 660(%rsp)
	jne	.LBB17_23
	jmp	.LBB17_22
.LBB17_21:
	movq	$0, 376(%rsp)
	jmp	.LBB17_53
.LBB17_22:
	movq	72(%rsp), %rax
	movq	%rax, 448(%rsp)
	movq	$1, 440(%rsp)
	jmp	.LBB17_24
.LBB17_23:
	movq	$0, 440(%rsp)
.LBB17_24:
	cmpq	$0, 440(%rsp)
	jne	.LBB17_26
	movq	$1, 424(%rsp)
	jmp	.LBB17_27
.LBB17_26:
	movq	448(%rsp), %rax
	movq	%rax, 432(%rsp)
	movq	$0, 424(%rsp)
.LBB17_27:
	cmpq	$0, 424(%rsp)
	jne	.LBB17_29
	movq	432(%rsp), %rax
	movq	%rax, 64(%rsp)
	cmpq	$0, 336(%rsp)
	je	.LBB17_30
	jmp	.LBB17_31
.LBB17_29:
	movq	$0, 376(%rsp)
	jmp	.LBB17_52
.LBB17_30:
	movq	$1, 520(%rsp)
	jmp	.LBB17_32
.LBB17_31:
	movq	344(%rsp), %rax
	movq	%rax, 528(%rsp)
	movq	$0, 520(%rsp)
.LBB17_32:
	cmpq	$0, 520(%rsp)
	jne	.LBB17_34
	movq	96(%rsp), %rax
	mulq	528(%rsp)
	movq	%rax, 56(%rsp)
	seto	%al
	andb	$1, %al
	movb	%al, 661(%rsp)
	testb	$1, 661(%rsp)
	jne	.LBB17_36
	jmp	.LBB17_35
.LBB17_34:
	movq	$0, 376(%rsp)
	jmp	.LBB17_52
.LBB17_35:
	movq	56(%rsp), %rax
	movq	%rax, 512(%rsp)
	movq	$1, 504(%rsp)
	jmp	.LBB17_37
.LBB17_36:
	movq	$0, 504(%rsp)
.LBB17_37:
	cmpq	$0, 504(%rsp)
	jne	.LBB17_39
	movq	$1, 488(%rsp)
	jmp	.LBB17_40
.LBB17_39:
	movq	512(%rsp), %rax
	movq	%rax, 496(%rsp)
	movq	$0, 488(%rsp)
.LBB17_40:
	cmpq	$0, 488(%rsp)
	jne	.LBB17_42
	movq	64(%rsp), %rax
	addq	496(%rsp), %rax
	movq	%rax, 48(%rsp)
	setb	%al
	andb	$1, %al
	movb	%al, 662(%rsp)
	testb	$1, 662(%rsp)
	jne	.LBB17_44
	jmp	.LBB17_43
.LBB17_42:
	movq	$0, 376(%rsp)
	jmp	.LBB17_52
.LBB17_43:
	movq	48(%rsp), %rax
	movq	%rax, 416(%rsp)
	movq	$1, 408(%rsp)
	jmp	.LBB17_45
.LBB17_44:
	movq	$0, 408(%rsp)
.LBB17_45:
	cmpq	$0, 408(%rsp)
	jne	.LBB17_47
	movq	$1, 392(%rsp)
	jmp	.LBB17_48
.LBB17_47:
	movq	416(%rsp), %rax
	movq	%rax, 400(%rsp)
	movq	$0, 392(%rsp)
.LBB17_48:
	cmpq	$0, 392(%rsp)
	jne	.LBB17_50
	movq	400(%rsp), %rax
	movq	%rax, 384(%rsp)
	movq	$1, 376(%rsp)
	jmp	.LBB17_51
.LBB17_50:
	movq	$0, 376(%rsp)
.LBB17_51:
	movq	128(%rsp), %rax
	movq	88(%rsp), %r8
	movq	376(%rsp), %rdx
	movq	384(%rsp), %rcx
	movq	%r8, (%rax)
	movq	%rdx, 8(%rax)
	movq	%rcx, 16(%rax)
	jmp	.LBB17_54
.LBB17_52:
	jmp	.LBB17_51
.LBB17_53:
	jmp	.LBB17_52
.LBB17_54:
	movq	136(%rsp), %rax
	addq	$664, %rsp
	retq
.LBB17_55:
	movq	$0, 616(%rsp)
	movq	$1, 608(%rsp)
	movq	$0, 536(%rsp)
	movq	608(%rsp), %rcx
	movq	616(%rsp), %rax
	movq	%rcx, 544(%rsp)
	movq	%rax, 552(%rsp)
	jmp	.LBB17_57
.LBB17_56:
	movq	120(%rsp), %rdx
	addq	$32, %rdx
	leaq	536(%rsp), %rcx
	callq	_ZN102_$LT$core..iter..adapters..map..Map$LT$I$C$F$GT$$u20$as$u20$core..iter..traits..iterator..Iterator$GT$9size_hint17h092eabaecba3446bE
.LBB17_57:
	movq	536(%rsp), %rax
	movq	544(%rsp), %rdx
	movq	552(%rsp), %rcx
	movq	%rdx, 624(%rsp)
	movq	%rcx, 632(%rsp)
	cmpq	$0, %rax
	jne	.LBB17_59
	cmpq	$1, 624(%rsp)
	je	.LBB17_60
.LBB17_59:
	movq	128(%rsp), %rax
	movq	104(%rsp), %rcx
	movq	$0, 576(%rsp)
	movq	%rcx, (%rax)
	movq	576(%rsp), %rdx
	movq	584(%rsp), %rcx
	movq	%rdx, 8(%rax)
	movq	%rcx, 16(%rax)
	jmp	.LBB17_67
.LBB17_60:
	cmpq	$1, 144(%rsp)
	jne	.LBB17_59
	cmpq	$1, 232(%rsp)
	jne	.LBB17_59
	cmpq	$0, 632(%rsp)
	jne	.LBB17_59
	movq	152(%rsp), %rax
	addq	240(%rsp), %rax
	movq	%rax, 40(%rsp)
	setb	%al
	andb	$1, %al
	movb	%al, 663(%rsp)
	testb	$1, 663(%rsp)
	jne	.LBB17_65
	movq	40(%rsp), %rax
	movq	%rax, 568(%rsp)
	movq	$1, 560(%rsp)
	jmp	.LBB17_66
.LBB17_65:
	movq	$0, 560(%rsp)
.LBB17_66:
	movq	128(%rsp), %rax
	movq	104(%rsp), %rcx
	movq	%rcx, (%rax)
	movq	560(%rsp), %rdx
	movq	568(%rsp), %rcx
	movq	%rdx, 8(%rax)
	movq	%rcx, 16(%rax)
.LBB17_67:
	jmp	.LBB17_54
	.seh_endproc

	.def	_ZN36_$LT$T$u20$as$u20$core..any..Any$GT$7type_id17h37c18758f1078b38E;
	.scl	3;
	.type	32;
	.endef
	.section	.text,"xr",one_only,_ZN36_$LT$T$u20$as$u20$core..any..Any$GT$7type_id17h37c18758f1078b38E
	.p2align	4, 0x90
_ZN36_$LT$T$u20$as$u20$core..any..Any$GT$7type_id17h37c18758f1078b38E:
.seh_proc _ZN36_$LT$T$u20$as$u20$core..any..Any$GT$7type_id17h37c18758f1078b38E
	subq	$32, %rsp
	.seh_stackalloc 32
	.seh_endprologue
	movabsq	$-163230743173927068, %rax
	movq	%rax, 24(%rsp)
	movabsq	$-4493808902380553279, %rax
	movq	%rax, 16(%rsp)
	movq	16(%rsp), %rax
	movq	24(%rsp), %rcx
	movq	%rcx, 8(%rsp)
	movq	%rax, (%rsp)
	movq	(%rsp), %rax
	movq	8(%rsp), %rdx
	addq	$32, %rsp
	retq
	.seh_endproc

	.def	_ZN3std10sys_common9backtrace26__rust_end_short_backtrace17h589dceda762e4dbdE;
	.scl	3;
	.type	32;
	.endef
	.section	.text,"xr",one_only,_ZN3std10sys_common9backtrace26__rust_end_short_backtrace17h589dceda762e4dbdE
	.p2align	4, 0x90
_ZN3std10sys_common9backtrace26__rust_end_short_backtrace17h589dceda762e4dbdE:
.seh_proc _ZN3std10sys_common9backtrace26__rust_end_short_backtrace17h589dceda762e4dbdE
	subq	$40, %rsp
	.seh_stackalloc 40
	.seh_endprologue
	callq	_ZN3std9panicking11begin_panic28_$u7b$$u7b$closure$u7d$$u7d$17h37efe92475cb68afE
	#APP
	#NO_APP
	ud2
	.seh_endproc

	.def	_ZN3std10sys_common9backtrace28__rust_begin_short_backtrace17h8e72153954261bf9E;
	.scl	3;
	.type	32;
	.endef
	.section	.text,"xr",one_only,_ZN3std10sys_common9backtrace28__rust_begin_short_backtrace17h8e72153954261bf9E
	.p2align	4, 0x90
_ZN3std10sys_common9backtrace28__rust_begin_short_backtrace17h8e72153954261bf9E:
.seh_proc _ZN3std10sys_common9backtrace28__rust_begin_short_backtrace17h8e72153954261bf9E
	subq	$40, %rsp
	.seh_stackalloc 40
	.seh_endprologue
	callq	_ZN4core3ops8function6FnOnce9call_once17h4222b67d136b97a7E
	#APP
	#NO_APP
	nop
	addq	$40, %rsp
	retq
	.seh_endproc

	.def	_ZN3std2fs14read_to_string17h882ed299d7cd006fE;
	.scl	3;
	.type	32;
	.endef
	.section	.text,"xr",one_only,_ZN3std2fs14read_to_string17h882ed299d7cd006fE
	.p2align	4, 0x90
_ZN3std2fs14read_to_string17h882ed299d7cd006fE:
.Lfunc_begin4:
.seh_proc _ZN3std2fs14read_to_string17h882ed299d7cd006fE
	.seh_handler __CxxFrameHandler3, @unwind, @except
	pushq	%rbp
	.seh_pushreg %rbp
	subq	$96, %rsp
	.seh_stackalloc 96
	leaq	96(%rsp), %rbp
	.seh_setframe %rbp, 96
	.seh_endprologue
	movq	$-2, -8(%rbp)
	movq	%rcx, -56(%rbp)
	movq	%rcx, -48(%rbp)
	movq	%rdx, -24(%rbp)
	movq	%r8, -16(%rbp)
.Ltmp16:
	leaq	-24(%rbp), %rcx
	callq	_ZN55_$LT$$RF$T$u20$as$u20$core..convert..AsRef$LT$U$GT$$GT$6as_ref17h3fdac3ecd6681102E
.Ltmp17:
	movq	%rdx, -40(%rbp)
	movq	%rax, -32(%rbp)
	jmp	.LBB21_2
.LBB21_2:
.Ltmp18:
	movq	-40(%rbp), %r8
	movq	-32(%rbp), %rdx
	movq	-56(%rbp), %rcx
	callq	_ZN3std2fs14read_to_string5inner17h70128b97df3fe2aaE
.Ltmp19:
	jmp	.LBB21_3
.LBB21_3:
	movq	-48(%rbp), %rax
	addq	$96, %rsp
	popq	%rbp
	retq
	.seh_handlerdata
	.long	($cppxdata$_ZN3std2fs14read_to_string17h882ed299d7cd006fE)@IMGREL
	.section	.text,"xr",one_only,_ZN3std2fs14read_to_string17h882ed299d7cd006fE
	.seh_endproc
	.def	"?dtor$1@?0?_ZN3std2fs14read_to_string17h882ed299d7cd006fE@4HA";
	.scl	3;
	.type	32;
	.endef
	.p2align	4, 0x90
"?dtor$1@?0?_ZN3std2fs14read_to_string17h882ed299d7cd006fE@4HA":
.seh_proc "?dtor$1@?0?_ZN3std2fs14read_to_string17h882ed299d7cd006fE@4HA"
.LBB21_1:
	movq	%rdx, 16(%rsp)
	pushq	%rbp
	.seh_pushreg %rbp
	subq	$32, %rsp
	.seh_stackalloc 32
	leaq	96(%rdx), %rbp
	.seh_endprologue
	addq	$32, %rsp
	popq	%rbp
	retq
.Lfunc_end4:
	.seh_handlerdata
	.section	.text,"xr",one_only,_ZN3std2fs14read_to_string17h882ed299d7cd006fE
	.seh_endproc
	.section	.xdata,"dr",associative,_ZN3std2fs14read_to_string17h882ed299d7cd006fE
	.p2align	2, 0x0
$cppxdata$_ZN3std2fs14read_to_string17h882ed299d7cd006fE:
	.long	429065506
	.long	1
	.long	($stateUnwindMap$_ZN3std2fs14read_to_string17h882ed299d7cd006fE)@IMGREL
	.long	0
	.long	0
	.long	3
	.long	($ip2state$_ZN3std2fs14read_to_string17h882ed299d7cd006fE)@IMGREL
	.long	88
	.long	0
	.long	1
$stateUnwindMap$_ZN3std2fs14read_to_string17h882ed299d7cd006fE:
	.long	-1
	.long	"?dtor$1@?0?_ZN3std2fs14read_to_string17h882ed299d7cd006fE@4HA"@IMGREL
$ip2state$_ZN3std2fs14read_to_string17h882ed299d7cd006fE:
	.long	.Lfunc_begin4@IMGREL
	.long	-1
	.long	.Ltmp16@IMGREL+1
	.long	0
	.long	.Ltmp19@IMGREL+1
	.long	-1
	.section	.text,"xr",one_only,_ZN3std2fs14read_to_string17h882ed299d7cd006fE

	.def	_ZN3std2io5error14repr_bitpacked11decode_repr17h287243bd1fa7785bE;
	.scl	3;
	.type	32;
	.endef
	.section	.text,"xr",one_only,_ZN3std2io5error14repr_bitpacked11decode_repr17h287243bd1fa7785bE
	.p2align	4, 0x90
_ZN3std2io5error14repr_bitpacked11decode_repr17h287243bd1fa7785bE:
.Lfunc_begin5:
.seh_proc _ZN3std2io5error14repr_bitpacked11decode_repr17h287243bd1fa7785bE
	.seh_handler __CxxFrameHandler3, @unwind, @except
	pushq	%rbp
	.seh_pushreg %rbp
	subq	$160, %rsp
	.seh_stackalloc 160
	leaq	128(%rsp), %rbp
	.seh_setframe %rbp, 128
	.seh_endprologue
	movq	$-2, 24(%rbp)
	movq	%rdx, -72(%rbp)
	movq	%rcx, -64(%rbp)
	movq	%rcx, -56(%rbp)
	movb	$1, -1(%rbp)
	movq	%rdx, -40(%rbp)
	movq	-40(%rbp), %rax
	andl	$3, %eax
	movq	%rax, -48(%rbp)
	subq	$3, %rax
	ja	.LBB22_1
	movq	-48(%rbp), %rax
	leaq	.LJTI22_0(%rip), %rcx
	movslq	(%rcx,%rax,4), %rax
	addq	%rcx, %rax
	jmpq	*%rax
.LBB22_1:
.Ltmp24:
	leaq	__unnamed_1(%rip), %rcx
	leaq	__unnamed_2(%rip), %r8
	movl	$40, %edx
	callq	_ZN4core9panicking5panic17h61d0277f5e1a7407E
.Ltmp25:
	jmp	.LBB22_12
.LBB22_2:
	movq	-64(%rbp), %rax
	movq	-40(%rbp), %rcx
	sarq	$32, %rcx
	movl	%ecx, 4(%rax)
	movb	$0, (%rax)
	jmp	.LBB22_6
.LBB22_3:
	movl	-36(%rbp), %ecx
.Ltmp22:
	callq	_ZN3std2io5error14repr_bitpacked14kind_from_prim17h771ddaed1fc4b1d7E
.Ltmp23:
	movb	%al, -73(%rbp)
	jmp	.LBB22_8
.LBB22_4:
	movq	-64(%rbp), %rax
	movq	-72(%rbp), %rcx
	movq	%rcx, -24(%rbp)
	movq	-24(%rbp), %rcx
	movq	%rcx, 8(%rax)
	movb	$2, (%rax)
	jmp	.LBB22_6
.LBB22_5:
	movq	-72(%rbp), %rax
	decq	%rax
	movq	%rax, 16(%rbp)
	movq	16(%rbp), %rax
	movq	%rax, 8(%rbp)
	movq	8(%rbp), %rax
	movq	%rax, (%rbp)
	movq	(%rbp), %rax
	movb	$0, -1(%rbp)
	movq	%rax, -16(%rbp)
	movq	-16(%rbp), %rcx
.Ltmp20:
	callq	_ZN78_$LT$std..io..error..repr_bitpacked..Repr$u20$as$u20$core..ops..drop..Drop$GT$4drop28_$u7b$$u7b$closure$u7d$$u7d$17h476c4a73c1b870f6E
.Ltmp21:
	movq	%rax, -88(%rbp)
	jmp	.LBB22_9
.LBB22_6:
	testb	$1, -1(%rbp)
	jne	.LBB22_11
	jmp	.LBB22_10
.LBB22_8:
	movq	-64(%rbp), %rax
	movb	-73(%rbp), %cl
	movb	%cl, -25(%rbp)
	movb	-25(%rbp), %cl
	movb	%cl, 1(%rax)
	movb	$1, (%rax)
	jmp	.LBB22_6
.LBB22_9:
	movq	-64(%rbp), %rax
	movq	-88(%rbp), %rcx
	movq	%rcx, 8(%rax)
	movb	$3, (%rax)
	jmp	.LBB22_6
.LBB22_10:
	movq	-56(%rbp), %rax
	addq	$160, %rsp
	popq	%rbp
	retq
.LBB22_11:
	jmp	.LBB22_10
.LBB22_12:
	ud2
	.seh_handlerdata
	.long	($cppxdata$_ZN3std2io5error14repr_bitpacked11decode_repr17h287243bd1fa7785bE)@IMGREL
	.section	.text,"xr",one_only,_ZN3std2io5error14repr_bitpacked11decode_repr17h287243bd1fa7785bE
	.seh_endproc
	.def	"?dtor$7@?0?_ZN3std2io5error14repr_bitpacked11decode_repr17h287243bd1fa7785bE@4HA";
	.scl	3;
	.type	32;
	.endef
	.p2align	4, 0x90
"?dtor$7@?0?_ZN3std2io5error14repr_bitpacked11decode_repr17h287243bd1fa7785bE@4HA":
.seh_proc "?dtor$7@?0?_ZN3std2io5error14repr_bitpacked11decode_repr17h287243bd1fa7785bE@4HA"
.LBB22_7:
	movq	%rdx, 16(%rsp)
	pushq	%rbp
	.seh_pushreg %rbp
	subq	$32, %rsp
	.seh_stackalloc 32
	leaq	128(%rdx), %rbp
	.seh_endprologue
	testb	$1, -1(%rbp)
	jne	.LBB22_14
	jmp	.LBB22_13
.LBB22_13:
	addq	$32, %rsp
	popq	%rbp
	retq
.LBB22_14:
	jmp	.LBB22_13
.Lfunc_end5:
	.section	.rdata,"dr",associative,_ZN3std2io5error14repr_bitpacked11decode_repr17h287243bd1fa7785bE
	.p2align	2, 0x0
.LJTI22_0:
	.long	.LBB22_4-.LJTI22_0
	.long	.LBB22_5-.LJTI22_0
	.long	.LBB22_2-.LJTI22_0
	.long	.LBB22_3-.LJTI22_0
	.seh_handlerdata
	.section	.text,"xr",one_only,_ZN3std2io5error14repr_bitpacked11decode_repr17h287243bd1fa7785bE
	.seh_endproc
	.section	.xdata,"dr",associative,_ZN3std2io5error14repr_bitpacked11decode_repr17h287243bd1fa7785bE
	.p2align	2, 0x0
$cppxdata$_ZN3std2io5error14repr_bitpacked11decode_repr17h287243bd1fa7785bE:
	.long	429065506
	.long	1
	.long	($stateUnwindMap$_ZN3std2io5error14repr_bitpacked11decode_repr17h287243bd1fa7785bE)@IMGREL
	.long	0
	.long	0
	.long	3
	.long	($ip2state$_ZN3std2io5error14repr_bitpacked11decode_repr17h287243bd1fa7785bE)@IMGREL
	.long	152
	.long	0
	.long	1
$stateUnwindMap$_ZN3std2io5error14repr_bitpacked11decode_repr17h287243bd1fa7785bE:
	.long	-1
	.long	"?dtor$7@?0?_ZN3std2io5error14repr_bitpacked11decode_repr17h287243bd1fa7785bE@4HA"@IMGREL
$ip2state$_ZN3std2io5error14repr_bitpacked11decode_repr17h287243bd1fa7785bE:
	.long	.Lfunc_begin5@IMGREL
	.long	-1
	.long	.Ltmp24@IMGREL+1
	.long	0
	.long	.Ltmp21@IMGREL+1
	.long	-1
	.section	.text,"xr",one_only,_ZN3std2io5error14repr_bitpacked11decode_repr17h287243bd1fa7785bE

	.def	_ZN3std2io5error14repr_bitpacked14kind_from_prim17h771ddaed1fc4b1d7E;
	.scl	3;
	.type	32;
	.endef
	.section	.text,"xr",one_only,_ZN3std2io5error14repr_bitpacked14kind_from_prim17h771ddaed1fc4b1d7E
	.p2align	4, 0x90
_ZN3std2io5error14repr_bitpacked14kind_from_prim17h771ddaed1fc4b1d7E:
.seh_proc _ZN3std2io5error14repr_bitpacked14kind_from_prim17h771ddaed1fc4b1d7E
	pushq	%rax
	.seh_stackalloc 8
	.seh_endprologue
	movl	%ecx, (%rsp)
	cmpl	$0, (%rsp)
	jne	.LBB23_2
	movb	$0, 7(%rsp)
	jmp	.LBB23_3
.LBB23_2:
	cmpl	$1, (%rsp)
	je	.LBB23_4
	jmp	.LBB23_5
.LBB23_3:
	movb	7(%rsp), %al
	popq	%rcx
	retq
.LBB23_4:
	movb	$1, 7(%rsp)
	jmp	.LBB23_3
.LBB23_5:
	cmpl	$2, (%rsp)
	jne	.LBB23_7
	movb	$2, 7(%rsp)
	jmp	.LBB23_3
.LBB23_7:
	cmpl	$3, (%rsp)
	jne	.LBB23_9
	movb	$3, 7(%rsp)
	jmp	.LBB23_3
.LBB23_9:
	cmpl	$4, (%rsp)
	jne	.LBB23_11
	movb	$4, 7(%rsp)
	jmp	.LBB23_3
.LBB23_11:
	cmpl	$5, (%rsp)
	jne	.LBB23_13
	movb	$5, 7(%rsp)
	jmp	.LBB23_3
.LBB23_13:
	cmpl	$6, (%rsp)
	jne	.LBB23_15
	movb	$6, 7(%rsp)
	jmp	.LBB23_3
.LBB23_15:
	cmpl	$7, (%rsp)
	jne	.LBB23_17
	movb	$7, 7(%rsp)
	jmp	.LBB23_3
.LBB23_17:
	cmpl	$8, (%rsp)
	jne	.LBB23_19
	movb	$8, 7(%rsp)
	jmp	.LBB23_3
.LBB23_19:
	cmpl	$9, (%rsp)
	jne	.LBB23_21
	movb	$9, 7(%rsp)
	jmp	.LBB23_3
.LBB23_21:
	cmpl	$10, (%rsp)
	jne	.LBB23_23
	movb	$10, 7(%rsp)
	jmp	.LBB23_3
.LBB23_23:
	cmpl	$11, (%rsp)
	jne	.LBB23_25
	movb	$11, 7(%rsp)
	jmp	.LBB23_3
.LBB23_25:
	cmpl	$12, (%rsp)
	jne	.LBB23_27
	movb	$12, 7(%rsp)
	jmp	.LBB23_3
.LBB23_27:
	cmpl	$13, (%rsp)
	jne	.LBB23_29
	movb	$13, 7(%rsp)
	jmp	.LBB23_3
.LBB23_29:
	cmpl	$14, (%rsp)
	jne	.LBB23_31
	movb	$14, 7(%rsp)
	jmp	.LBB23_3
.LBB23_31:
	cmpl	$15, (%rsp)
	jne	.LBB23_33
	movb	$15, 7(%rsp)
	jmp	.LBB23_3
.LBB23_33:
	cmpl	$16, (%rsp)
	jne	.LBB23_35
	movb	$16, 7(%rsp)
	jmp	.LBB23_3
.LBB23_35:
	cmpl	$17, (%rsp)
	jne	.LBB23_37
	movb	$17, 7(%rsp)
	jmp	.LBB23_3
.LBB23_37:
	cmpl	$18, (%rsp)
	jne	.LBB23_39
	movb	$18, 7(%rsp)
	jmp	.LBB23_3
.LBB23_39:
	cmpl	$19, (%rsp)
	jne	.LBB23_41
	movb	$19, 7(%rsp)
	jmp	.LBB23_3
.LBB23_41:
	cmpl	$20, (%rsp)
	jne	.LBB23_43
	movb	$20, 7(%rsp)
	jmp	.LBB23_3
.LBB23_43:
	cmpl	$21, (%rsp)
	jne	.LBB23_45
	movb	$21, 7(%rsp)
	jmp	.LBB23_3
.LBB23_45:
	cmpl	$22, (%rsp)
	jne	.LBB23_47
	movb	$22, 7(%rsp)
	jmp	.LBB23_3
.LBB23_47:
	cmpl	$23, (%rsp)
	jne	.LBB23_49
	movb	$23, 7(%rsp)
	jmp	.LBB23_3
.LBB23_49:
	cmpl	$24, (%rsp)
	jne	.LBB23_51
	movb	$24, 7(%rsp)
	jmp	.LBB23_3
.LBB23_51:
	cmpl	$25, (%rsp)
	jne	.LBB23_53
	movb	$25, 7(%rsp)
	jmp	.LBB23_3
.LBB23_53:
	cmpl	$26, (%rsp)
	jne	.LBB23_55
	movb	$26, 7(%rsp)
	jmp	.LBB23_3
.LBB23_55:
	cmpl	$27, (%rsp)
	jne	.LBB23_57
	movb	$27, 7(%rsp)
	jmp	.LBB23_3
.LBB23_57:
	cmpl	$28, (%rsp)
	jne	.LBB23_59
	movb	$28, 7(%rsp)
	jmp	.LBB23_3
.LBB23_59:
	cmpl	$29, (%rsp)
	jne	.LBB23_61
	movb	$29, 7(%rsp)
	jmp	.LBB23_3
.LBB23_61:
	cmpl	$30, (%rsp)
	jne	.LBB23_63
	movb	$30, 7(%rsp)
	jmp	.LBB23_3
.LBB23_63:
	cmpl	$31, (%rsp)
	jne	.LBB23_65
	movb	$31, 7(%rsp)
	jmp	.LBB23_3
.LBB23_65:
	cmpl	$32, (%rsp)
	jne	.LBB23_67
	movb	$32, 7(%rsp)
	jmp	.LBB23_3
.LBB23_67:
	cmpl	$33, (%rsp)
	jne	.LBB23_69
	movb	$33, 7(%rsp)
	jmp	.LBB23_3
.LBB23_69:
	cmpl	$34, (%rsp)
	jne	.LBB23_71
	movb	$34, 7(%rsp)
	jmp	.LBB23_3
.LBB23_71:
	cmpl	$35, (%rsp)
	jne	.LBB23_73
	movb	$35, 7(%rsp)
	jmp	.LBB23_3
.LBB23_73:
	cmpl	$39, (%rsp)
	jne	.LBB23_75
	movb	$39, 7(%rsp)
	jmp	.LBB23_3
.LBB23_75:
	cmpl	$37, (%rsp)
	jne	.LBB23_77
	movb	$37, 7(%rsp)
	jmp	.LBB23_3
.LBB23_77:
	cmpl	$36, (%rsp)
	jne	.LBB23_79
	movb	$36, 7(%rsp)
	jmp	.LBB23_3
.LBB23_79:
	cmpl	$38, (%rsp)
	jne	.LBB23_81
	movb	$38, 7(%rsp)
	jmp	.LBB23_3
.LBB23_81:
	cmpl	$40, (%rsp)
	jne	.LBB23_83
	movb	$40, 7(%rsp)
	jmp	.LBB23_3
.LBB23_83:
	movb	$41, 7(%rsp)
	jmp	.LBB23_3
	.seh_endproc

	.def	_ZN3std2rt10lang_start17h04e305a1691e354aE;
	.scl	2;
	.type	32;
	.endef
	.section	.text,"xr",one_only,_ZN3std2rt10lang_start17h04e305a1691e354aE
	.globl	_ZN3std2rt10lang_start17h04e305a1691e354aE
	.p2align	4, 0x90
_ZN3std2rt10lang_start17h04e305a1691e354aE:
.seh_proc _ZN3std2rt10lang_start17h04e305a1691e354aE
	subq	$56, %rsp
	.seh_stackalloc 56
	.seh_endprologue
	movb	%r9b, %al
	movq	%r8, %r9
	movq	%rdx, %r8
	movq	%rcx, 48(%rsp)
	leaq	48(%rsp), %rcx
	leaq	__unnamed_3(%rip), %rdx
	movb	%al, 32(%rsp)
	callq	_ZN3std2rt19lang_start_internal17h68f55995b3e4e811E
	movq	%rax, 40(%rsp)
	movq	40(%rsp), %rax
	addq	$56, %rsp
	retq
	.seh_endproc

	.def	_ZN3std2rt10lang_start28_$u7b$$u7b$closure$u7d$$u7d$17hfd970e295f03ccbbE;
	.scl	3;
	.type	32;
	.endef
	.section	.text,"xr",one_only,_ZN3std2rt10lang_start28_$u7b$$u7b$closure$u7d$$u7d$17hfd970e295f03ccbbE
	.p2align	4, 0x90
_ZN3std2rt10lang_start28_$u7b$$u7b$closure$u7d$$u7d$17hfd970e295f03ccbbE:
.seh_proc _ZN3std2rt10lang_start28_$u7b$$u7b$closure$u7d$$u7d$17hfd970e295f03ccbbE
	subq	$40, %rsp
	.seh_stackalloc 40
	.seh_endprologue
	movq	(%rcx), %rcx
	callq	_ZN3std10sys_common9backtrace28__rust_begin_short_backtrace17h8e72153954261bf9E
	callq	_ZN54_$LT$$LP$$RP$$u20$as$u20$std..process..Termination$GT$6report17h7852a051559fdc9bE
	movl	%eax, 36(%rsp)
	movl	36(%rsp), %eax
	addq	$40, %rsp
	retq
	.seh_endproc

	.def	_ZN3std4path77_$LT$impl$u20$core..convert..AsRef$LT$std..path..Path$GT$$u20$for$u20$str$GT$6as_ref17h8870f8047c5a96a2E;
	.scl	3;
	.type	32;
	.endef
	.section	.text,"xr",one_only,_ZN3std4path77_$LT$impl$u20$core..convert..AsRef$LT$std..path..Path$GT$$u20$for$u20$str$GT$6as_ref17h8870f8047c5a96a2E
	.p2align	4, 0x90
_ZN3std4path77_$LT$impl$u20$core..convert..AsRef$LT$std..path..Path$GT$$u20$for$u20$str$GT$6as_ref17h8870f8047c5a96a2E:
	movq	%rcx, %rax
	retq

	.def	_ZN3std7process5abort17h34180d47dbabb208E;
	.scl	3;
	.type	32;
	.endef
	.section	.text,"xr",one_only,_ZN3std7process5abort17h34180d47dbabb208E
	.p2align	4, 0x90
_ZN3std7process5abort17h34180d47dbabb208E:
.seh_proc _ZN3std7process5abort17h34180d47dbabb208E
	pushq	%rax
	.seh_stackalloc 8
	.seh_endprologue
	movl	$7, %ecx
	#APP

	int	$41

	#NO_APP
	ud2
	.seh_endproc

	.def	_ZN3std9panicking11begin_panic17h9edf81df9dcd4ff0E;
	.scl	3;
	.type	32;
	.endef
	.section	.text,"xr",one_only,_ZN3std9panicking11begin_panic17h9edf81df9dcd4ff0E
	.p2align	4, 0x90
_ZN3std9panicking11begin_panic17h9edf81df9dcd4ff0E:
.Lfunc_begin6:
.seh_proc _ZN3std9panicking11begin_panic17h9edf81df9dcd4ff0E
	.seh_handler __CxxFrameHandler3, @unwind, @except
	pushq	%rbp
	.seh_pushreg %rbp
	subq	$80, %rsp
	.seh_stackalloc 80
	leaq	80(%rsp), %rbp
	.seh_setframe %rbp, 80
	.seh_endprologue
	movq	$-2, -8(%rbp)
	movq	%r8, -16(%rbp)
	movq	-16(%rbp), %rax
	movq	%rcx, -40(%rbp)
	movq	%rdx, -32(%rbp)
	movq	%rax, -24(%rbp)
.Ltmp26:
	leaq	-40(%rbp), %rcx
	callq	_ZN3std10sys_common9backtrace26__rust_end_short_backtrace17h589dceda762e4dbdE
.Ltmp27:
	jmp	.LBB28_2
.LBB28_2:
	ud2
	.seh_handlerdata
	.long	($cppxdata$_ZN3std9panicking11begin_panic17h9edf81df9dcd4ff0E)@IMGREL
	.section	.text,"xr",one_only,_ZN3std9panicking11begin_panic17h9edf81df9dcd4ff0E
	.seh_endproc
	.def	"?dtor$1@?0?_ZN3std9panicking11begin_panic17h9edf81df9dcd4ff0E@4HA";
	.scl	3;
	.type	32;
	.endef
	.p2align	4, 0x90
"?dtor$1@?0?_ZN3std9panicking11begin_panic17h9edf81df9dcd4ff0E@4HA":
.seh_proc "?dtor$1@?0?_ZN3std9panicking11begin_panic17h9edf81df9dcd4ff0E@4HA"
.LBB28_1:
	movq	%rdx, 16(%rsp)
	pushq	%rbp
	.seh_pushreg %rbp
	subq	$32, %rsp
	.seh_stackalloc 32
	leaq	80(%rdx), %rbp
	.seh_endprologue
	addq	$32, %rsp
	popq	%rbp
	retq
.Lfunc_end6:
	.seh_handlerdata
	.section	.text,"xr",one_only,_ZN3std9panicking11begin_panic17h9edf81df9dcd4ff0E
	.seh_endproc
	.section	.xdata,"dr",associative,_ZN3std9panicking11begin_panic17h9edf81df9dcd4ff0E
	.p2align	2, 0x0
$cppxdata$_ZN3std9panicking11begin_panic17h9edf81df9dcd4ff0E:
	.long	429065506
	.long	1
	.long	($stateUnwindMap$_ZN3std9panicking11begin_panic17h9edf81df9dcd4ff0E)@IMGREL
	.long	0
	.long	0
	.long	3
	.long	($ip2state$_ZN3std9panicking11begin_panic17h9edf81df9dcd4ff0E)@IMGREL
	.long	72
	.long	0
	.long	1
$stateUnwindMap$_ZN3std9panicking11begin_panic17h9edf81df9dcd4ff0E:
	.long	-1
	.long	"?dtor$1@?0?_ZN3std9panicking11begin_panic17h9edf81df9dcd4ff0E@4HA"@IMGREL
$ip2state$_ZN3std9panicking11begin_panic17h9edf81df9dcd4ff0E:
	.long	.Lfunc_begin6@IMGREL
	.long	-1
	.long	.Ltmp26@IMGREL+1
	.long	0
	.long	.Ltmp27@IMGREL+1
	.long	-1
	.section	.text,"xr",one_only,_ZN3std9panicking11begin_panic17h9edf81df9dcd4ff0E

	.def	_ZN3std9panicking11begin_panic28_$u7b$$u7b$closure$u7d$$u7d$17h37efe92475cb68afE;
	.scl	3;
	.type	32;
	.endef
	.section	.text,"xr",one_only,_ZN3std9panicking11begin_panic28_$u7b$$u7b$closure$u7d$$u7d$17h37efe92475cb68afE
	.p2align	4, 0x90
_ZN3std9panicking11begin_panic28_$u7b$$u7b$closure$u7d$$u7d$17h37efe92475cb68afE:
.Lfunc_begin7:
.seh_proc _ZN3std9panicking11begin_panic28_$u7b$$u7b$closure$u7d$$u7d$17h37efe92475cb68afE
	.seh_handler __CxxFrameHandler3, @unwind, @except
	pushq	%rbp
	.seh_pushreg %rbp
	subq	$96, %rsp
	.seh_stackalloc 96
	leaq	96(%rsp), %rbp
	.seh_setframe %rbp, 96
	.seh_endprologue
	movq	$-2, -8(%rbp)
	movq	(%rcx), %rdx
	movq	8(%rcx), %rax
	movq	%rdx, -24(%rbp)
	movq	%rax, -16(%rbp)
	movq	-24(%rbp), %rdx
	movq	-16(%rbp), %rax
	movq	%rdx, -40(%rbp)
	movq	%rax, -32(%rbp)
	movq	16(%rcx), %r9
.Ltmp28:
	movq	%rsp, %rax
	movb	$0, 40(%rax)
	movb	$1, 32(%rax)
	leaq	__unnamed_4(%rip), %rdx
	xorl	%eax, %eax
	movl	%eax, %r8d
	leaq	-40(%rbp), %rcx
	callq	_ZN3std9panicking20rust_panic_with_hook17h870983d929e74e12E
.Ltmp29:
	jmp	.LBB29_2
.LBB29_2:
	ud2
	.seh_handlerdata
	.long	($cppxdata$_ZN3std9panicking11begin_panic28_$u7b$$u7b$closure$u7d$$u7d$17h37efe92475cb68afE)@IMGREL
	.section	.text,"xr",one_only,_ZN3std9panicking11begin_panic28_$u7b$$u7b$closure$u7d$$u7d$17h37efe92475cb68afE
	.seh_endproc
	.def	"?dtor$1@?0?_ZN3std9panicking11begin_panic28_$u7b$$u7b$closure$u7d$$u7d$17h37efe92475cb68afE@4HA";
	.scl	3;
	.type	32;
	.endef
	.p2align	4, 0x90
"?dtor$1@?0?_ZN3std9panicking11begin_panic28_$u7b$$u7b$closure$u7d$$u7d$17h37efe92475cb68afE@4HA":
.seh_proc "?dtor$1@?0?_ZN3std9panicking11begin_panic28_$u7b$$u7b$closure$u7d$$u7d$17h37efe92475cb68afE@4HA"
.LBB29_1:
	movq	%rdx, 16(%rsp)
	pushq	%rbp
	.seh_pushreg %rbp
	subq	$48, %rsp
	.seh_stackalloc 48
	leaq	96(%rdx), %rbp
	.seh_endprologue
	addq	$48, %rsp
	popq	%rbp
	retq
.Lfunc_end7:
	.seh_handlerdata
	.section	.text,"xr",one_only,_ZN3std9panicking11begin_panic28_$u7b$$u7b$closure$u7d$$u7d$17h37efe92475cb68afE
	.seh_endproc
	.section	.xdata,"dr",associative,_ZN3std9panicking11begin_panic28_$u7b$$u7b$closure$u7d$$u7d$17h37efe92475cb68afE
	.p2align	2, 0x0
$cppxdata$_ZN3std9panicking11begin_panic28_$u7b$$u7b$closure$u7d$$u7d$17h37efe92475cb68afE:
	.long	429065506
	.long	1
	.long	($stateUnwindMap$_ZN3std9panicking11begin_panic28_$u7b$$u7b$closure$u7d$$u7d$17h37efe92475cb68afE)@IMGREL
	.long	0
	.long	0
	.long	3
	.long	($ip2state$_ZN3std9panicking11begin_panic28_$u7b$$u7b$closure$u7d$$u7d$17h37efe92475cb68afE)@IMGREL
	.long	88
	.long	0
	.long	1
$stateUnwindMap$_ZN3std9panicking11begin_panic28_$u7b$$u7b$closure$u7d$$u7d$17h37efe92475cb68afE:
	.long	-1
	.long	"?dtor$1@?0?_ZN3std9panicking11begin_panic28_$u7b$$u7b$closure$u7d$$u7d$17h37efe92475cb68afE@4HA"@IMGREL
$ip2state$_ZN3std9panicking11begin_panic28_$u7b$$u7b$closure$u7d$$u7d$17h37efe92475cb68afE:
	.long	.Lfunc_begin7@IMGREL
	.long	-1
	.long	.Ltmp28@IMGREL+1
	.long	0
	.long	.Ltmp29@IMGREL+1
	.long	-1
	.section	.text,"xr",one_only,_ZN3std9panicking11begin_panic28_$u7b$$u7b$closure$u7d$$u7d$17h37efe92475cb68afE

	.def	_ZN49_$LT$usize$u20$as$u20$core..iter..range..Step$GT$17forward_unchecked17hd8bc50b28c9fda64E;
	.scl	3;
	.type	32;
	.endef
	.section	.text,"xr",one_only,_ZN49_$LT$usize$u20$as$u20$core..iter..range..Step$GT$17forward_unchecked17hd8bc50b28c9fda64E
	.p2align	4, 0x90
_ZN49_$LT$usize$u20$as$u20$core..iter..range..Step$GT$17forward_unchecked17hd8bc50b28c9fda64E:
	movq	%rcx, %rax
	addq	%rdx, %rax
	retq

	.def	_ZN4core3cmp5impls50_$LT$impl$u20$core..cmp..Ord$u20$for$u20$usize$GT$3cmp17h2fab185296dc8c67E;
	.scl	3;
	.type	32;
	.endef
	.section	.text,"xr",one_only,_ZN4core3cmp5impls50_$LT$impl$u20$core..cmp..Ord$u20$for$u20$usize$GT$3cmp17h2fab185296dc8c67E
	.p2align	4, 0x90
_ZN4core3cmp5impls50_$LT$impl$u20$core..cmp..Ord$u20$for$u20$usize$GT$3cmp17h2fab185296dc8c67E:
.seh_proc _ZN4core3cmp5impls50_$LT$impl$u20$core..cmp..Ord$u20$for$u20$usize$GT$3cmp17h2fab185296dc8c67E
	subq	$24, %rsp
	.seh_stackalloc 24
	.seh_endprologue
	movq	%rdx, (%rsp)
	movq	%rcx, 8(%rsp)
	movq	(%rcx), %rax
	cmpq	(%rdx), %rax
	jb	.LBB31_2
	movq	(%rsp), %rcx
	movq	8(%rsp), %rax
	movq	(%rax), %rax
	cmpq	(%rcx), %rax
	je	.LBB31_4
	jmp	.LBB31_3
.LBB31_2:
	movb	$-1, 23(%rsp)
	jmp	.LBB31_6
.LBB31_3:
	movb	$1, 23(%rsp)
	jmp	.LBB31_5
.LBB31_4:
	movb	$0, 23(%rsp)
.LBB31_5:
	jmp	.LBB31_6
.LBB31_6:
	movb	23(%rsp), %al
	addq	$24, %rsp
	retq
	.seh_endproc

	.def	_ZN4core3cmp6max_by17h6be5526ef6b6b243E;
	.scl	3;
	.type	32;
	.endef
	.section	.text,"xr",one_only,_ZN4core3cmp6max_by17h6be5526ef6b6b243E
	.p2align	4, 0x90
_ZN4core3cmp6max_by17h6be5526ef6b6b243E:
.Lfunc_begin8:
.seh_proc _ZN4core3cmp6max_by17h6be5526ef6b6b243E
	.seh_handler __CxxFrameHandler3, @unwind, @except
	pushq	%rbp
	.seh_pushreg %rbp
	subq	$112, %rsp
	.seh_stackalloc 112
	leaq	112(%rsp), %rbp
	.seh_setframe %rbp, 112
	.seh_endprologue
	movq	$-2, -8(%rbp)
	movq	%rcx, -64(%rbp)
	movq	%rdx, -56(%rbp)
	movb	$1, -9(%rbp)
	movb	$1, -10(%rbp)
	leaq	-64(%rbp), %rax
	movq	%rax, -32(%rbp)
	leaq	-56(%rbp), %rax
	movq	%rax, -24(%rbp)
	movq	-32(%rbp), %rcx
	movq	-24(%rbp), %rdx
.Ltmp30:
	callq	_ZN4core3ops8function6FnOnce9call_once17hf04827d70605c7daE
.Ltmp31:
	movb	%al, -65(%rbp)
	jmp	.LBB32_2
.LBB32_2:
	movb	-65(%rbp), %al
	movb	%al, -33(%rbp)
	movb	-33(%rbp), %al
	incb	%al
	subb	$2, %al
	jb	.LBB32_4
	jmp	.LBB32_14
.LBB32_14:
	jmp	.LBB32_5
	ud2
.LBB32_4:
	movb	$0, -10(%rbp)
	movq	-56(%rbp), %rax
	movq	%rax, -48(%rbp)
	jmp	.LBB32_6
.LBB32_5:
	movb	$0, -9(%rbp)
	movq	-64(%rbp), %rax
	movq	%rax, -48(%rbp)
.LBB32_6:
	testb	$1, -10(%rbp)
	jne	.LBB32_8
.LBB32_7:
	testb	$1, -9(%rbp)
	jne	.LBB32_10
	jmp	.LBB32_9
.LBB32_8:
	jmp	.LBB32_7
.LBB32_9:
	movq	-48(%rbp), %rax
	addq	$112, %rsp
	popq	%rbp
	retq
.LBB32_10:
	jmp	.LBB32_9
	.seh_handlerdata
	.long	($cppxdata$_ZN4core3cmp6max_by17h6be5526ef6b6b243E)@IMGREL
	.section	.text,"xr",one_only,_ZN4core3cmp6max_by17h6be5526ef6b6b243E
	.seh_endproc
	.def	"?dtor$1@?0?_ZN4core3cmp6max_by17h6be5526ef6b6b243E@4HA";
	.scl	3;
	.type	32;
	.endef
	.p2align	4, 0x90
"?dtor$1@?0?_ZN4core3cmp6max_by17h6be5526ef6b6b243E@4HA":
.seh_proc "?dtor$1@?0?_ZN4core3cmp6max_by17h6be5526ef6b6b243E@4HA"
.LBB32_1:
	movq	%rdx, 16(%rsp)
	pushq	%rbp
	.seh_pushreg %rbp
	subq	$32, %rsp
	.seh_stackalloc 32
	leaq	112(%rdx), %rbp
	.seh_endprologue
	addq	$32, %rsp
	popq	%rbp
	retq
	.seh_handlerdata
	.section	.text,"xr",one_only,_ZN4core3cmp6max_by17h6be5526ef6b6b243E
	.seh_endproc
	.def	"?dtor$11@?0?_ZN4core3cmp6max_by17h6be5526ef6b6b243E@4HA";
	.scl	3;
	.type	32;
	.endef
	.p2align	4, 0x90
"?dtor$11@?0?_ZN4core3cmp6max_by17h6be5526ef6b6b243E@4HA":
.seh_proc "?dtor$11@?0?_ZN4core3cmp6max_by17h6be5526ef6b6b243E@4HA"
.LBB32_11:
	movq	%rdx, 16(%rsp)
	pushq	%rbp
	.seh_pushreg %rbp
	subq	$32, %rsp
	.seh_stackalloc 32
	leaq	112(%rdx), %rbp
	.seh_endprologue
	testb	$1, -9(%rbp)
	jne	.LBB32_13
.LBB32_12:
	addq	$32, %rsp
	popq	%rbp
	retq
.LBB32_13:
	jmp	.LBB32_12
.Lfunc_end8:
	.seh_handlerdata
	.section	.text,"xr",one_only,_ZN4core3cmp6max_by17h6be5526ef6b6b243E
	.seh_endproc
	.section	.xdata,"dr",associative,_ZN4core3cmp6max_by17h6be5526ef6b6b243E
	.p2align	2, 0x0
$cppxdata$_ZN4core3cmp6max_by17h6be5526ef6b6b243E:
	.long	429065506
	.long	2
	.long	($stateUnwindMap$_ZN4core3cmp6max_by17h6be5526ef6b6b243E)@IMGREL
	.long	0
	.long	0
	.long	3
	.long	($ip2state$_ZN4core3cmp6max_by17h6be5526ef6b6b243E)@IMGREL
	.long	104
	.long	0
	.long	1
$stateUnwindMap$_ZN4core3cmp6max_by17h6be5526ef6b6b243E:
	.long	-1
	.long	"?dtor$11@?0?_ZN4core3cmp6max_by17h6be5526ef6b6b243E@4HA"@IMGREL
	.long	0
	.long	"?dtor$1@?0?_ZN4core3cmp6max_by17h6be5526ef6b6b243E@4HA"@IMGREL
$ip2state$_ZN4core3cmp6max_by17h6be5526ef6b6b243E:
	.long	.Lfunc_begin8@IMGREL
	.long	-1
	.long	.Ltmp30@IMGREL+1
	.long	1
	.long	.Ltmp31@IMGREL+1
	.long	-1
	.section	.text,"xr",one_only,_ZN4core3cmp6max_by17h6be5526ef6b6b243E

	.def	_ZN4core3fmt9Arguments6new_v117h0061d676988942a2E;
	.scl	3;
	.type	32;
	.endef
	.section	.text,"xr",one_only,_ZN4core3fmt9Arguments6new_v117h0061d676988942a2E
	.p2align	4, 0x90
_ZN4core3fmt9Arguments6new_v117h0061d676988942a2E:
.seh_proc _ZN4core3fmt9Arguments6new_v117h0061d676988942a2E
	subq	$168, %rsp
	.seh_stackalloc 168
	.seh_endprologue
	movq	%r9, 40(%rsp)
	movq	%r8, 48(%rsp)
	movq	%rdx, 56(%rsp)
	movq	%rcx, 64(%rsp)
	movq	%rcx, 72(%rsp)
	movq	208(%rsp), %rax
	movq	%rax, 80(%rsp)
	cmpq	%rax, %r8
	jb	.LBB33_2
	movq	48(%rsp), %rax
	movq	80(%rsp), %rcx
	addq	$1, %rcx
	cmpq	%rcx, %rax
	ja	.LBB33_4
	jmp	.LBB33_3
.LBB33_2:
	jmp	.LBB33_4
.LBB33_3:
	movq	72(%rsp), %rax
	movq	64(%rsp), %rcx
	movq	80(%rsp), %rdx
	movq	40(%rsp), %r8
	movq	48(%rsp), %r9
	movq	56(%rsp), %r10
	movq	$0, 136(%rsp)
	movq	%r10, (%rcx)
	movq	%r9, 8(%rcx)
	movq	136(%rsp), %r10
	movq	144(%rsp), %r9
	movq	%r10, 32(%rcx)
	movq	%r9, 40(%rcx)
	movq	%r8, 16(%rcx)
	movq	%rdx, 24(%rcx)
	addq	$168, %rsp
	retq
.LBB33_4:
	movq	$0, 152(%rsp)
	leaq	__unnamed_5(%rip), %rax
	movq	%rax, 88(%rsp)
	movq	$1, 96(%rsp)
	movq	152(%rsp), %rcx
	movq	160(%rsp), %rax
	movq	%rcx, 120(%rsp)
	movq	%rax, 128(%rsp)
	leaq	__unnamed_6(%rip), %rax
	movq	%rax, 104(%rsp)
	movq	$0, 112(%rsp)
	leaq	__unnamed_7(%rip), %rdx
	leaq	88(%rsp), %rcx
	callq	_ZN4core9panicking9panic_fmt17ha5dd7a91f3010b68E
	int3
	.seh_endproc

	.def	_ZN4core3fmt9Arguments9new_const17h3810d366fc005d6cE;
	.scl	3;
	.type	32;
	.endef
	.section	.text,"xr",one_only,_ZN4core3fmt9Arguments9new_const17h3810d366fc005d6cE
	.p2align	4, 0x90
_ZN4core3fmt9Arguments9new_const17h3810d366fc005d6cE:
.seh_proc _ZN4core3fmt9Arguments9new_const17h3810d366fc005d6cE
	subq	$136, %rsp
	.seh_stackalloc 136
	.seh_endprologue
	movq	%r8, 40(%rsp)
	movq	%rdx, 48(%rsp)
	movq	%rcx, 56(%rsp)
	movq	%rcx, 64(%rsp)
	cmpq	$1, %r8
	ja	.LBB34_2
	movq	64(%rsp), %rax
	movq	56(%rsp), %rcx
	movq	40(%rsp), %rdx
	movq	48(%rsp), %r8
	movq	$0, 120(%rsp)
	movq	%r8, (%rcx)
	movq	%rdx, 8(%rcx)
	movq	120(%rsp), %r8
	movq	128(%rsp), %rdx
	movq	%r8, 32(%rcx)
	movq	%rdx, 40(%rcx)
	leaq	__unnamed_6(%rip), %rdx
	movq	%rdx, 16(%rcx)
	movq	$0, 24(%rcx)
	addq	$136, %rsp
	retq
.LBB34_2:
	leaq	__unnamed_5(%rip), %rdx
	leaq	72(%rsp), %rcx
	movq	%rcx, 32(%rsp)
	movl	$1, %r8d
	callq	_ZN4core3fmt9Arguments9new_const17h3810d366fc005d6cE
	movq	32(%rsp), %rcx
	leaq	__unnamed_8(%rip), %rdx
	callq	_ZN4core9panicking9panic_fmt17ha5dd7a91f3010b68E
	int3
	.seh_endproc

	.def	_ZN4core3num23_$LT$impl$u20$usize$GT$14saturating_mul17h6aafe4156d96ebf4E;
	.scl	3;
	.type	32;
	.endef
	.section	.text,"xr",one_only,_ZN4core3num23_$LT$impl$u20$usize$GT$14saturating_mul17h6aafe4156d96ebf4E
	.p2align	4, 0x90
_ZN4core3num23_$LT$impl$u20$usize$GT$14saturating_mul17h6aafe4156d96ebf4E:
.seh_proc _ZN4core3num23_$LT$impl$u20$usize$GT$14saturating_mul17h6aafe4156d96ebf4E
	subq	$40, %rsp
	.seh_stackalloc 40
	.seh_endprologue
	movq	%rcx, %rax
	mulq	%rdx
	movq	%rax, (%rsp)
	seto	%al
	andb	$1, %al
	movb	%al, 39(%rsp)
	testb	$1, 39(%rsp)
	jne	.LBB35_2
	movq	(%rsp), %rax
	movq	%rax, 24(%rsp)
	movq	$1, 16(%rsp)
	jmp	.LBB35_3
.LBB35_2:
	movq	$0, 16(%rsp)
.LBB35_3:
	cmpq	$0, 16(%rsp)
	jne	.LBB35_5
	movq	$-1, 8(%rsp)
	jmp	.LBB35_6
.LBB35_5:
	movq	24(%rsp), %rax
	movq	%rax, 8(%rsp)
.LBB35_6:
	movq	8(%rsp), %rax
	addq	$40, %rsp
	retq
	.seh_endproc

	.def	_ZN4core3ops8function5impls80_$LT$impl$u20$core..ops..function..FnOnce$LT$A$GT$$u20$for$u20$$RF$mut$u20$F$GT$9call_once17h6458a06683edd967E;
	.scl	3;
	.type	32;
	.endef
	.section	.text,"xr",one_only,_ZN4core3ops8function5impls80_$LT$impl$u20$core..ops..function..FnOnce$LT$A$GT$$u20$for$u20$$RF$mut$u20$F$GT$9call_once17h6458a06683edd967E
	.p2align	4, 0x90
_ZN4core3ops8function5impls80_$LT$impl$u20$core..ops..function..FnOnce$LT$A$GT$$u20$for$u20$$RF$mut$u20$F$GT$9call_once17h6458a06683edd967E:
.seh_proc _ZN4core3ops8function5impls80_$LT$impl$u20$core..ops..function..FnOnce$LT$A$GT$$u20$for$u20$$RF$mut$u20$F$GT$9call_once17h6458a06683edd967E
	subq	$56, %rsp
	.seh_stackalloc 56
	.seh_endprologue
	movq	%rdx, 40(%rsp)
	movq	%r8, 48(%rsp)
	movq	40(%rsp), %rdx
	movq	48(%rsp), %r8
	callq	_ZN92_$LT$core..str..LinesMap$u20$as$u20$core..ops..function..FnMut$LT$$LP$$RF$str$C$$RP$$GT$$GT$8call_mut17h019c79f00156bb55E
	nop
	addq	$56, %rsp
	retq
	.seh_endproc

	.def	_ZN4core3ops8function5impls80_$LT$impl$u20$core..ops..function..FnOnce$LT$A$GT$$u20$for$u20$$RF$mut$u20$F$GT$9call_once17h95623eebb1b20cf9E;
	.scl	3;
	.type	32;
	.endef
	.section	.text,"xr",one_only,_ZN4core3ops8function5impls80_$LT$impl$u20$core..ops..function..FnOnce$LT$A$GT$$u20$for$u20$$RF$mut$u20$F$GT$9call_once17h95623eebb1b20cf9E
	.p2align	4, 0x90
_ZN4core3ops8function5impls80_$LT$impl$u20$core..ops..function..FnOnce$LT$A$GT$$u20$for$u20$$RF$mut$u20$F$GT$9call_once17h95623eebb1b20cf9E:
.seh_proc _ZN4core3ops8function5impls80_$LT$impl$u20$core..ops..function..FnOnce$LT$A$GT$$u20$for$u20$$RF$mut$u20$F$GT$9call_once17h95623eebb1b20cf9E
	subq	$56, %rsp
	.seh_stackalloc 56
	.seh_endprologue
	movq	%rdx, 40(%rsp)
	movq	%r8, 48(%rsp)
	movq	40(%rsp), %rdx
	movq	48(%rsp), %r8
	callq	_ZN4main4Grid11from_string28_$u7b$$u7b$closure$u7d$$u7d$17hbca631ab76826795E
	nop
	addq	$56, %rsp
	retq
	.seh_endproc

	.def	_ZN4core3ops8function5impls80_$LT$impl$u20$core..ops..function..FnOnce$LT$A$GT$$u20$for$u20$$RF$mut$u20$F$GT$9call_once17heaee4000ef533182E;
	.scl	3;
	.type	32;
	.endef
	.section	.text,"xr",one_only,_ZN4core3ops8function5impls80_$LT$impl$u20$core..ops..function..FnOnce$LT$A$GT$$u20$for$u20$$RF$mut$u20$F$GT$9call_once17heaee4000ef533182E
	.p2align	4, 0x90
_ZN4core3ops8function5impls80_$LT$impl$u20$core..ops..function..FnOnce$LT$A$GT$$u20$for$u20$$RF$mut$u20$F$GT$9call_once17heaee4000ef533182E:
.seh_proc _ZN4core3ops8function5impls80_$LT$impl$u20$core..ops..function..FnOnce$LT$A$GT$$u20$for$u20$$RF$mut$u20$F$GT$9call_once17heaee4000ef533182E
	subq	$40, %rsp
	.seh_stackalloc 40
	.seh_endprologue
	movl	%edx, 36(%rsp)
	movl	36(%rsp), %edx
	callq	_ZN4main4Grid11from_string28_$u7b$$u7b$closure$u7d$$u7d$28_$u7b$$u7b$closure$u7d$$u7d$17h98d5e4af08f7c783E
	nop
	addq	$40, %rsp
	retq
	.seh_endproc

	.def	_ZN4core3ops8function6FnOnce40call_once$u7b$$u7b$vtable.shim$u7d$$u7d$17hb54be526d72110cfE;
	.scl	3;
	.type	32;
	.endef
	.section	.text,"xr",one_only,_ZN4core3ops8function6FnOnce40call_once$u7b$$u7b$vtable.shim$u7d$$u7d$17hb54be526d72110cfE
	.p2align	4, 0x90
_ZN4core3ops8function6FnOnce40call_once$u7b$$u7b$vtable.shim$u7d$$u7d$17hb54be526d72110cfE:
.seh_proc _ZN4core3ops8function6FnOnce40call_once$u7b$$u7b$vtable.shim$u7d$$u7d$17hb54be526d72110cfE
	subq	$40, %rsp
	.seh_stackalloc 40
	.seh_endprologue
	movq	(%rcx), %rcx
	callq	_ZN4core3ops8function6FnOnce9call_once17h3119ee5dd8465905E
	nop
	addq	$40, %rsp
	retq
	.seh_endproc

	.def	_ZN4core3ops8function6FnOnce9call_once17h1648ab9165bd9a3eE;
	.scl	3;
	.type	32;
	.endef
	.section	.text,"xr",one_only,_ZN4core3ops8function6FnOnce9call_once17h1648ab9165bd9a3eE
	.p2align	4, 0x90
_ZN4core3ops8function6FnOnce9call_once17h1648ab9165bd9a3eE:
.seh_proc _ZN4core3ops8function6FnOnce9call_once17h1648ab9165bd9a3eE
	subq	$40, %rsp
	.seh_stackalloc 40
	.seh_endprologue
	movq	%rcx, 32(%rsp)
	movq	32(%rsp), %rcx
	callq	_ZN102_$LT$core..iter..adapters..map..Map$LT$I$C$F$GT$$u20$as$u20$core..iter..traits..iterator..Iterator$GT$4next17hea604985130bd6a1E
	andb	$1, %al
	addq	$40, %rsp
	retq
	.seh_endproc

	.def	_ZN4core3ops8function6FnOnce9call_once17h3119ee5dd8465905E;
	.scl	3;
	.type	32;
	.endef
	.section	.text,"xr",one_only,_ZN4core3ops8function6FnOnce9call_once17h3119ee5dd8465905E
	.p2align	4, 0x90
_ZN4core3ops8function6FnOnce9call_once17h3119ee5dd8465905E:
.Lfunc_begin9:
.seh_proc _ZN4core3ops8function6FnOnce9call_once17h3119ee5dd8465905E
	.seh_handler __CxxFrameHandler3, @unwind, @except
	pushq	%rbp
	.seh_pushreg %rbp
	subq	$64, %rsp
	.seh_stackalloc 64
	leaq	64(%rsp), %rbp
	.seh_setframe %rbp, 64
	.seh_endprologue
	movq	$-2, -8(%rbp)
	movq	%rcx, -16(%rbp)
.Ltmp32:
	leaq	-16(%rbp), %rcx
	callq	_ZN3std2rt10lang_start28_$u7b$$u7b$closure$u7d$$u7d$17hfd970e295f03ccbbE
.Ltmp33:
	movl	%eax, -20(%rbp)
	jmp	.LBB41_2
.LBB41_2:
	movl	-20(%rbp), %eax
	addq	$64, %rsp
	popq	%rbp
	retq
	.seh_handlerdata
	.long	($cppxdata$_ZN4core3ops8function6FnOnce9call_once17h3119ee5dd8465905E)@IMGREL
	.section	.text,"xr",one_only,_ZN4core3ops8function6FnOnce9call_once17h3119ee5dd8465905E
	.seh_endproc
	.def	"?dtor$1@?0?_ZN4core3ops8function6FnOnce9call_once17h3119ee5dd8465905E@4HA";
	.scl	3;
	.type	32;
	.endef
	.p2align	4, 0x90
"?dtor$1@?0?_ZN4core3ops8function6FnOnce9call_once17h3119ee5dd8465905E@4HA":
.seh_proc "?dtor$1@?0?_ZN4core3ops8function6FnOnce9call_once17h3119ee5dd8465905E@4HA"
.LBB41_1:
	movq	%rdx, 16(%rsp)
	pushq	%rbp
	.seh_pushreg %rbp
	subq	$32, %rsp
	.seh_stackalloc 32
	leaq	64(%rdx), %rbp
	.seh_endprologue
	addq	$32, %rsp
	popq	%rbp
	retq
.Lfunc_end9:
	.seh_handlerdata
	.section	.text,"xr",one_only,_ZN4core3ops8function6FnOnce9call_once17h3119ee5dd8465905E
	.seh_endproc
	.section	.xdata,"dr",associative,_ZN4core3ops8function6FnOnce9call_once17h3119ee5dd8465905E
	.p2align	2, 0x0
$cppxdata$_ZN4core3ops8function6FnOnce9call_once17h3119ee5dd8465905E:
	.long	429065506
	.long	1
	.long	($stateUnwindMap$_ZN4core3ops8function6FnOnce9call_once17h3119ee5dd8465905E)@IMGREL
	.long	0
	.long	0
	.long	3
	.long	($ip2state$_ZN4core3ops8function6FnOnce9call_once17h3119ee5dd8465905E)@IMGREL
	.long	56
	.long	0
	.long	1
$stateUnwindMap$_ZN4core3ops8function6FnOnce9call_once17h3119ee5dd8465905E:
	.long	-1
	.long	"?dtor$1@?0?_ZN4core3ops8function6FnOnce9call_once17h3119ee5dd8465905E@4HA"@IMGREL
$ip2state$_ZN4core3ops8function6FnOnce9call_once17h3119ee5dd8465905E:
	.long	.Lfunc_begin9@IMGREL
	.long	-1
	.long	.Ltmp32@IMGREL+1
	.long	0
	.long	.Ltmp33@IMGREL+1
	.long	-1
	.section	.text,"xr",one_only,_ZN4core3ops8function6FnOnce9call_once17h3119ee5dd8465905E

	.def	_ZN4core3ops8function6FnOnce9call_once17h4222b67d136b97a7E;
	.scl	3;
	.type	32;
	.endef
	.section	.text,"xr",one_only,_ZN4core3ops8function6FnOnce9call_once17h4222b67d136b97a7E
	.p2align	4, 0x90
_ZN4core3ops8function6FnOnce9call_once17h4222b67d136b97a7E:
.seh_proc _ZN4core3ops8function6FnOnce9call_once17h4222b67d136b97a7E
	subq	$40, %rsp
	.seh_stackalloc 40
	.seh_endprologue
	callq	*%rcx
	nop
	addq	$40, %rsp
	retq
	.seh_endproc

	.def	_ZN4core3ops8function6FnOnce9call_once17hf04827d70605c7daE;
	.scl	3;
	.type	32;
	.endef
	.section	.text,"xr",one_only,_ZN4core3ops8function6FnOnce9call_once17hf04827d70605c7daE
	.p2align	4, 0x90
_ZN4core3ops8function6FnOnce9call_once17hf04827d70605c7daE:
.seh_proc _ZN4core3ops8function6FnOnce9call_once17hf04827d70605c7daE
	subq	$56, %rsp
	.seh_stackalloc 56
	.seh_endprologue
	movq	%rcx, 40(%rsp)
	movq	%rdx, 48(%rsp)
	movq	40(%rsp), %rcx
	movq	48(%rsp), %rdx
	callq	_ZN4core3cmp5impls50_$LT$impl$u20$core..cmp..Ord$u20$for$u20$usize$GT$3cmp17h2fab185296dc8c67E
	nop
	addq	$56, %rsp
	retq
	.seh_endproc

	.def	_ZN4core3ops8function6FnOnce9call_once17hfc842ef232eb2ce0E;
	.scl	3;
	.type	32;
	.endef
	.section	.text,"xr",one_only,_ZN4core3ops8function6FnOnce9call_once17hfc842ef232eb2ce0E
	.p2align	4, 0x90
_ZN4core3ops8function6FnOnce9call_once17hfc842ef232eb2ce0E:
.seh_proc _ZN4core3ops8function6FnOnce9call_once17hfc842ef232eb2ce0E
	subq	$56, %rsp
	.seh_stackalloc 56
	.seh_endprologue
	movq	%rcx, %rax
	movq	%rax, 40(%rsp)
	movq	%rdx, 48(%rsp)
	movq	48(%rsp), %rdx
	callq	_ZN102_$LT$core..iter..adapters..map..Map$LT$I$C$F$GT$$u20$as$u20$core..iter..traits..iterator..Iterator$GT$9size_hint17hf8a3e94fcfd8e229E
	movq	40(%rsp), %rax
	addq	$56, %rsp
	retq
	.seh_endproc

	.def	_ZN4core3ptr101drop_in_place$LT$std..io..error..ErrorData$LT$alloc..boxed..Box$LT$std..io..error..Custom$GT$$GT$$GT$17h2542ab27db33ab85E;
	.scl	3;
	.type	32;
	.endef
	.section	.text,"xr",one_only,_ZN4core3ptr101drop_in_place$LT$std..io..error..ErrorData$LT$alloc..boxed..Box$LT$std..io..error..Custom$GT$$GT$$GT$17h2542ab27db33ab85E
	.p2align	4, 0x90
_ZN4core3ptr101drop_in_place$LT$std..io..error..ErrorData$LT$alloc..boxed..Box$LT$std..io..error..Custom$GT$$GT$$GT$17h2542ab27db33ab85E:
.seh_proc _ZN4core3ptr101drop_in_place$LT$std..io..error..ErrorData$LT$alloc..boxed..Box$LT$std..io..error..Custom$GT$$GT$$GT$17h2542ab27db33ab85E
	subq	$40, %rsp
	.seh_stackalloc 40
	.seh_endprologue
	movq	%rcx, 32(%rsp)
	movb	(%rcx), %al
	subb	$3, %al
	jb	.LBB45_2
	jmp	.LBB45_1
.LBB45_1:
	movq	32(%rsp), %rcx
	addq	$8, %rcx
	callq	_ZN4core3ptr68drop_in_place$LT$alloc..boxed..Box$LT$std..io..error..Custom$GT$$GT$17h5b2305e5cc6a7c3dE
.LBB45_2:
	nop
	addq	$40, %rsp
	retq
	.seh_endproc

	.def	_ZN4core3ptr118drop_in_place$LT$alloc..boxed..Box$LT$dyn$u20$core..error..Error$u2b$core..marker..Send$u2b$core..marker..Sync$GT$$GT$17he181876677d1223eE;
	.scl	3;
	.type	32;
	.endef
	.section	.text,"xr",one_only,_ZN4core3ptr118drop_in_place$LT$alloc..boxed..Box$LT$dyn$u20$core..error..Error$u2b$core..marker..Send$u2b$core..marker..Sync$GT$$GT$17he181876677d1223eE
	.p2align	4, 0x90
_ZN4core3ptr118drop_in_place$LT$alloc..boxed..Box$LT$dyn$u20$core..error..Error$u2b$core..marker..Send$u2b$core..marker..Sync$GT$$GT$17he181876677d1223eE:
.Lfunc_begin10:
.seh_proc _ZN4core3ptr118drop_in_place$LT$alloc..boxed..Box$LT$dyn$u20$core..error..Error$u2b$core..marker..Send$u2b$core..marker..Sync$GT$$GT$17he181876677d1223eE
	.seh_handler __CxxFrameHandler3, @unwind, @except
	pushq	%rbp
	.seh_pushreg %rbp
	subq	$48, %rsp
	.seh_stackalloc 48
	leaq	48(%rsp), %rbp
	.seh_setframe %rbp, 48
	.seh_endprologue
	movq	$-2, -8(%rbp)
	movq	%rcx, %rax
	movq	%rax, -16(%rbp)
	movq	(%rax), %rcx
	movq	8(%rax), %rax
	movq	(%rax), %rax
.Ltmp34:
	callq	*%rax
.Ltmp35:
	jmp	.LBB46_2
.LBB46_2:
	movq	-16(%rbp), %rcx
	callq	_ZN72_$LT$alloc..boxed..Box$LT$T$C$A$GT$$u20$as$u20$core..ops..drop..Drop$GT$4drop17h69901fc7641326d5E
	nop
	addq	$48, %rsp
	popq	%rbp
	retq
	.seh_handlerdata
	.long	($cppxdata$_ZN4core3ptr118drop_in_place$LT$alloc..boxed..Box$LT$dyn$u20$core..error..Error$u2b$core..marker..Send$u2b$core..marker..Sync$GT$$GT$17he181876677d1223eE)@IMGREL
	.section	.text,"xr",one_only,_ZN4core3ptr118drop_in_place$LT$alloc..boxed..Box$LT$dyn$u20$core..error..Error$u2b$core..marker..Send$u2b$core..marker..Sync$GT$$GT$17he181876677d1223eE
	.seh_endproc
	.def	"?dtor$1@?0?_ZN4core3ptr118drop_in_place$LT$alloc..boxed..Box$LT$dyn$u20$core..error..Error$u2b$core..marker..Send$u2b$core..marker..Sync$GT$$GT$17he181876677d1223eE@4HA";
	.scl	3;
	.type	32;
	.endef
	.p2align	4, 0x90
"?dtor$1@?0?_ZN4core3ptr118drop_in_place$LT$alloc..boxed..Box$LT$dyn$u20$core..error..Error$u2b$core..marker..Send$u2b$core..marker..Sync$GT$$GT$17he181876677d1223eE@4HA":
.seh_proc "?dtor$1@?0?_ZN4core3ptr118drop_in_place$LT$alloc..boxed..Box$LT$dyn$u20$core..error..Error$u2b$core..marker..Send$u2b$core..marker..Sync$GT$$GT$17he181876677d1223eE@4HA"
.LBB46_1:
	movq	%rdx, 16(%rsp)
	pushq	%rbp
	.seh_pushreg %rbp
	subq	$32, %rsp
	.seh_stackalloc 32
	leaq	48(%rdx), %rbp
	.seh_endprologue
	movq	-16(%rbp), %rcx
	callq	_ZN72_$LT$alloc..boxed..Box$LT$T$C$A$GT$$u20$as$u20$core..ops..drop..Drop$GT$4drop17h69901fc7641326d5E
	nop
	addq	$32, %rsp
	popq	%rbp
	retq
.Lfunc_end10:
	.seh_handlerdata
	.section	.text,"xr",one_only,_ZN4core3ptr118drop_in_place$LT$alloc..boxed..Box$LT$dyn$u20$core..error..Error$u2b$core..marker..Send$u2b$core..marker..Sync$GT$$GT$17he181876677d1223eE
	.seh_endproc
	.section	.xdata,"dr",associative,_ZN4core3ptr118drop_in_place$LT$alloc..boxed..Box$LT$dyn$u20$core..error..Error$u2b$core..marker..Send$u2b$core..marker..Sync$GT$$GT$17he181876677d1223eE
	.p2align	2, 0x0
$cppxdata$_ZN4core3ptr118drop_in_place$LT$alloc..boxed..Box$LT$dyn$u20$core..error..Error$u2b$core..marker..Send$u2b$core..marker..Sync$GT$$GT$17he181876677d1223eE:
	.long	429065506
	.long	1
	.long	($stateUnwindMap$_ZN4core3ptr118drop_in_place$LT$alloc..boxed..Box$LT$dyn$u20$core..error..Error$u2b$core..marker..Send$u2b$core..marker..Sync$GT$$GT$17he181876677d1223eE)@IMGREL
	.long	0
	.long	0
	.long	3
	.long	($ip2state$_ZN4core3ptr118drop_in_place$LT$alloc..boxed..Box$LT$dyn$u20$core..error..Error$u2b$core..marker..Send$u2b$core..marker..Sync$GT$$GT$17he181876677d1223eE)@IMGREL
	.long	40
	.long	0
	.long	1
$stateUnwindMap$_ZN4core3ptr118drop_in_place$LT$alloc..boxed..Box$LT$dyn$u20$core..error..Error$u2b$core..marker..Send$u2b$core..marker..Sync$GT$$GT$17he181876677d1223eE:
	.long	-1
	.long	"?dtor$1@?0?_ZN4core3ptr118drop_in_place$LT$alloc..boxed..Box$LT$dyn$u20$core..error..Error$u2b$core..marker..Send$u2b$core..marker..Sync$GT$$GT$17he181876677d1223eE@4HA"@IMGREL
$ip2state$_ZN4core3ptr118drop_in_place$LT$alloc..boxed..Box$LT$dyn$u20$core..error..Error$u2b$core..marker..Send$u2b$core..marker..Sync$GT$$GT$17he181876677d1223eE:
	.long	.Lfunc_begin10@IMGREL
	.long	-1
	.long	.Ltmp34@IMGREL+1
	.long	0
	.long	.Ltmp35@IMGREL+1
	.long	-1
	.section	.text,"xr",one_only,_ZN4core3ptr118drop_in_place$LT$alloc..boxed..Box$LT$dyn$u20$core..error..Error$u2b$core..marker..Send$u2b$core..marker..Sync$GT$$GT$17he181876677d1223eE

	.def	_ZN4core3ptr28drop_in_place$LT$$RF$str$GT$17hd146f8e76d87b309E;
	.scl	3;
	.type	32;
	.endef
	.section	.text,"xr",one_only,_ZN4core3ptr28drop_in_place$LT$$RF$str$GT$17hd146f8e76d87b309E
	.p2align	4, 0x90
_ZN4core3ptr28drop_in_place$LT$$RF$str$GT$17hd146f8e76d87b309E:
	retq

	.def	_ZN4core3ptr31drop_in_place$LT$main..Grid$GT$17hcf351dd0ea676febE;
	.scl	3;
	.type	32;
	.endef
	.section	.text,"xr",one_only,_ZN4core3ptr31drop_in_place$LT$main..Grid$GT$17hcf351dd0ea676febE
	.p2align	4, 0x90
_ZN4core3ptr31drop_in_place$LT$main..Grid$GT$17hcf351dd0ea676febE:
.seh_proc _ZN4core3ptr31drop_in_place$LT$main..Grid$GT$17hcf351dd0ea676febE
	subq	$40, %rsp
	.seh_stackalloc 40
	.seh_endprologue
	callq	_ZN4core3ptr46drop_in_place$LT$alloc..vec..Vec$LT$u8$GT$$GT$17h06af24bcb6465c3aE
	nop
	addq	$40, %rsp
	retq
	.seh_endproc

	.def	_ZN4core3ptr42drop_in_place$LT$alloc..string..String$GT$17h9ab6c115ea522864E;
	.scl	3;
	.type	32;
	.endef
	.section	.text,"xr",one_only,_ZN4core3ptr42drop_in_place$LT$alloc..string..String$GT$17h9ab6c115ea522864E
	.p2align	4, 0x90
_ZN4core3ptr42drop_in_place$LT$alloc..string..String$GT$17h9ab6c115ea522864E:
.seh_proc _ZN4core3ptr42drop_in_place$LT$alloc..string..String$GT$17h9ab6c115ea522864E
	subq	$40, %rsp
	.seh_stackalloc 40
	.seh_endprologue
	callq	_ZN4core3ptr46drop_in_place$LT$alloc..vec..Vec$LT$u8$GT$$GT$17h06af24bcb6465c3aE
	nop
	addq	$40, %rsp
	retq
	.seh_endproc

	.def	_ZN4core3ptr42drop_in_place$LT$std..io..error..Error$GT$17hafc8ec0874c34cb6E;
	.scl	3;
	.type	32;
	.endef
	.section	.text,"xr",one_only,_ZN4core3ptr42drop_in_place$LT$std..io..error..Error$GT$17hafc8ec0874c34cb6E
	.p2align	4, 0x90
_ZN4core3ptr42drop_in_place$LT$std..io..error..Error$GT$17hafc8ec0874c34cb6E:
.seh_proc _ZN4core3ptr42drop_in_place$LT$std..io..error..Error$GT$17hafc8ec0874c34cb6E
	subq	$40, %rsp
	.seh_stackalloc 40
	.seh_endprologue
	callq	_ZN4core3ptr57drop_in_place$LT$std..io..error..repr_bitpacked..Repr$GT$17h2a6a11d64c0aee2bE
	nop
	addq	$40, %rsp
	retq
	.seh_endproc

	.def	_ZN4core3ptr43drop_in_place$LT$std..io..error..Custom$GT$17h01ff87d98424739fE;
	.scl	3;
	.type	32;
	.endef
	.section	.text,"xr",one_only,_ZN4core3ptr43drop_in_place$LT$std..io..error..Custom$GT$17h01ff87d98424739fE
	.p2align	4, 0x90
_ZN4core3ptr43drop_in_place$LT$std..io..error..Custom$GT$17h01ff87d98424739fE:
.seh_proc _ZN4core3ptr43drop_in_place$LT$std..io..error..Custom$GT$17h01ff87d98424739fE
	subq	$40, %rsp
	.seh_stackalloc 40
	.seh_endprologue
	callq	_ZN4core3ptr118drop_in_place$LT$alloc..boxed..Box$LT$dyn$u20$core..error..Error$u2b$core..marker..Send$u2b$core..marker..Sync$GT$$GT$17he181876677d1223eE
	nop
	addq	$40, %rsp
	retq
	.seh_endproc

	.def	_ZN4core3ptr46drop_in_place$LT$alloc..vec..Vec$LT$u8$GT$$GT$17h06af24bcb6465c3aE;
	.scl	3;
	.type	32;
	.endef
	.section	.text,"xr",one_only,_ZN4core3ptr46drop_in_place$LT$alloc..vec..Vec$LT$u8$GT$$GT$17h06af24bcb6465c3aE
	.p2align	4, 0x90
_ZN4core3ptr46drop_in_place$LT$alloc..vec..Vec$LT$u8$GT$$GT$17h06af24bcb6465c3aE:
.Lfunc_begin11:
.seh_proc _ZN4core3ptr46drop_in_place$LT$alloc..vec..Vec$LT$u8$GT$$GT$17h06af24bcb6465c3aE
	.seh_handler __CxxFrameHandler3, @unwind, @except
	pushq	%rbp
	.seh_pushreg %rbp
	subq	$48, %rsp
	.seh_stackalloc 48
	leaq	48(%rsp), %rbp
	.seh_setframe %rbp, 48
	.seh_endprologue
	movq	$-2, -8(%rbp)
	movq	%rcx, -16(%rbp)
.Ltmp36:
	callq	_ZN70_$LT$alloc..vec..Vec$LT$T$C$A$GT$$u20$as$u20$core..ops..drop..Drop$GT$4drop17h91f9a3f40be4b37dE
.Ltmp37:
	jmp	.LBB52_2
.LBB52_2:
	movq	-16(%rbp), %rcx
	callq	_ZN4core3ptr53drop_in_place$LT$alloc..raw_vec..RawVec$LT$u8$GT$$GT$17hbdbe7d4e88e50377E
	nop
	addq	$48, %rsp
	popq	%rbp
	retq
	.seh_handlerdata
	.long	($cppxdata$_ZN4core3ptr46drop_in_place$LT$alloc..vec..Vec$LT$u8$GT$$GT$17h06af24bcb6465c3aE)@IMGREL
	.section	.text,"xr",one_only,_ZN4core3ptr46drop_in_place$LT$alloc..vec..Vec$LT$u8$GT$$GT$17h06af24bcb6465c3aE
	.seh_endproc
	.def	"?dtor$1@?0?_ZN4core3ptr46drop_in_place$LT$alloc..vec..Vec$LT$u8$GT$$GT$17h06af24bcb6465c3aE@4HA";
	.scl	3;
	.type	32;
	.endef
	.p2align	4, 0x90
"?dtor$1@?0?_ZN4core3ptr46drop_in_place$LT$alloc..vec..Vec$LT$u8$GT$$GT$17h06af24bcb6465c3aE@4HA":
.seh_proc "?dtor$1@?0?_ZN4core3ptr46drop_in_place$LT$alloc..vec..Vec$LT$u8$GT$$GT$17h06af24bcb6465c3aE@4HA"
.LBB52_1:
	movq	%rdx, 16(%rsp)
	pushq	%rbp
	.seh_pushreg %rbp
	subq	$32, %rsp
	.seh_stackalloc 32
	leaq	48(%rdx), %rbp
	.seh_endprologue
	movq	-16(%rbp), %rcx
	callq	_ZN4core3ptr53drop_in_place$LT$alloc..raw_vec..RawVec$LT$u8$GT$$GT$17hbdbe7d4e88e50377E
	nop
	addq	$32, %rsp
	popq	%rbp
	retq
.Lfunc_end11:
	.seh_handlerdata
	.section	.text,"xr",one_only,_ZN4core3ptr46drop_in_place$LT$alloc..vec..Vec$LT$u8$GT$$GT$17h06af24bcb6465c3aE
	.seh_endproc
	.section	.xdata,"dr",associative,_ZN4core3ptr46drop_in_place$LT$alloc..vec..Vec$LT$u8$GT$$GT$17h06af24bcb6465c3aE
	.p2align	2, 0x0
$cppxdata$_ZN4core3ptr46drop_in_place$LT$alloc..vec..Vec$LT$u8$GT$$GT$17h06af24bcb6465c3aE:
	.long	429065506
	.long	1
	.long	($stateUnwindMap$_ZN4core3ptr46drop_in_place$LT$alloc..vec..Vec$LT$u8$GT$$GT$17h06af24bcb6465c3aE)@IMGREL
	.long	0
	.long	0
	.long	3
	.long	($ip2state$_ZN4core3ptr46drop_in_place$LT$alloc..vec..Vec$LT$u8$GT$$GT$17h06af24bcb6465c3aE)@IMGREL
	.long	40
	.long	0
	.long	1
$stateUnwindMap$_ZN4core3ptr46drop_in_place$LT$alloc..vec..Vec$LT$u8$GT$$GT$17h06af24bcb6465c3aE:
	.long	-1
	.long	"?dtor$1@?0?_ZN4core3ptr46drop_in_place$LT$alloc..vec..Vec$LT$u8$GT$$GT$17h06af24bcb6465c3aE@4HA"@IMGREL
$ip2state$_ZN4core3ptr46drop_in_place$LT$alloc..vec..Vec$LT$u8$GT$$GT$17h06af24bcb6465c3aE:
	.long	.Lfunc_begin11@IMGREL
	.long	-1
	.long	.Ltmp36@IMGREL+1
	.long	0
	.long	.Ltmp37@IMGREL+1
	.long	-1
	.section	.text,"xr",one_only,_ZN4core3ptr46drop_in_place$LT$alloc..vec..Vec$LT$u8$GT$$GT$17h06af24bcb6465c3aE

	.def	_ZN4core3ptr53drop_in_place$LT$alloc..raw_vec..RawVec$LT$u8$GT$$GT$17hbdbe7d4e88e50377E;
	.scl	3;
	.type	32;
	.endef
	.section	.text,"xr",one_only,_ZN4core3ptr53drop_in_place$LT$alloc..raw_vec..RawVec$LT$u8$GT$$GT$17hbdbe7d4e88e50377E
	.p2align	4, 0x90
_ZN4core3ptr53drop_in_place$LT$alloc..raw_vec..RawVec$LT$u8$GT$$GT$17hbdbe7d4e88e50377E:
.seh_proc _ZN4core3ptr53drop_in_place$LT$alloc..raw_vec..RawVec$LT$u8$GT$$GT$17hbdbe7d4e88e50377E
	subq	$40, %rsp
	.seh_stackalloc 40
	.seh_endprologue
	callq	_ZN77_$LT$alloc..raw_vec..RawVec$LT$T$C$A$GT$$u20$as$u20$core..ops..drop..Drop$GT$4drop17h4947f69e28200761E
	nop
	addq	$40, %rsp
	retq
	.seh_endproc

	.def	_ZN4core3ptr57drop_in_place$LT$std..io..error..repr_bitpacked..Repr$GT$17h2a6a11d64c0aee2bE;
	.scl	3;
	.type	32;
	.endef
	.section	.text,"xr",one_only,_ZN4core3ptr57drop_in_place$LT$std..io..error..repr_bitpacked..Repr$GT$17h2a6a11d64c0aee2bE
	.p2align	4, 0x90
_ZN4core3ptr57drop_in_place$LT$std..io..error..repr_bitpacked..Repr$GT$17h2a6a11d64c0aee2bE:
.seh_proc _ZN4core3ptr57drop_in_place$LT$std..io..error..repr_bitpacked..Repr$GT$17h2a6a11d64c0aee2bE
	subq	$40, %rsp
	.seh_stackalloc 40
	.seh_endprologue
	callq	_ZN78_$LT$std..io..error..repr_bitpacked..Repr$u20$as$u20$core..ops..drop..Drop$GT$4drop17hd03cae4f6e7fb9f8E
	nop
	addq	$40, %rsp
	retq
	.seh_endproc

	.def	_ZN4core3ptr68drop_in_place$LT$alloc..boxed..Box$LT$std..io..error..Custom$GT$$GT$17h5b2305e5cc6a7c3dE;
	.scl	3;
	.type	32;
	.endef
	.section	.text,"xr",one_only,_ZN4core3ptr68drop_in_place$LT$alloc..boxed..Box$LT$std..io..error..Custom$GT$$GT$17h5b2305e5cc6a7c3dE
	.p2align	4, 0x90
_ZN4core3ptr68drop_in_place$LT$alloc..boxed..Box$LT$std..io..error..Custom$GT$$GT$17h5b2305e5cc6a7c3dE:
.Lfunc_begin12:
.seh_proc _ZN4core3ptr68drop_in_place$LT$alloc..boxed..Box$LT$std..io..error..Custom$GT$$GT$17h5b2305e5cc6a7c3dE
	.seh_handler __CxxFrameHandler3, @unwind, @except
	pushq	%rbp
	.seh_pushreg %rbp
	subq	$48, %rsp
	.seh_stackalloc 48
	leaq	48(%rsp), %rbp
	.seh_setframe %rbp, 48
	.seh_endprologue
	movq	$-2, -8(%rbp)
	movq	%rcx, -16(%rbp)
	movq	(%rcx), %rcx
.Ltmp38:
	callq	_ZN4core3ptr43drop_in_place$LT$std..io..error..Custom$GT$17h01ff87d98424739fE
.Ltmp39:
	jmp	.LBB55_2
.LBB55_2:
	movq	-16(%rbp), %rcx
	callq	_ZN72_$LT$alloc..boxed..Box$LT$T$C$A$GT$$u20$as$u20$core..ops..drop..Drop$GT$4drop17h28d9df11c24f9854E
	nop
	addq	$48, %rsp
	popq	%rbp
	retq
	.seh_handlerdata
	.long	($cppxdata$_ZN4core3ptr68drop_in_place$LT$alloc..boxed..Box$LT$std..io..error..Custom$GT$$GT$17h5b2305e5cc6a7c3dE)@IMGREL
	.section	.text,"xr",one_only,_ZN4core3ptr68drop_in_place$LT$alloc..boxed..Box$LT$std..io..error..Custom$GT$$GT$17h5b2305e5cc6a7c3dE
	.seh_endproc
	.def	"?dtor$1@?0?_ZN4core3ptr68drop_in_place$LT$alloc..boxed..Box$LT$std..io..error..Custom$GT$$GT$17h5b2305e5cc6a7c3dE@4HA";
	.scl	3;
	.type	32;
	.endef
	.p2align	4, 0x90
"?dtor$1@?0?_ZN4core3ptr68drop_in_place$LT$alloc..boxed..Box$LT$std..io..error..Custom$GT$$GT$17h5b2305e5cc6a7c3dE@4HA":
.seh_proc "?dtor$1@?0?_ZN4core3ptr68drop_in_place$LT$alloc..boxed..Box$LT$std..io..error..Custom$GT$$GT$17h5b2305e5cc6a7c3dE@4HA"
.LBB55_1:
	movq	%rdx, 16(%rsp)
	pushq	%rbp
	.seh_pushreg %rbp
	subq	$32, %rsp
	.seh_stackalloc 32
	leaq	48(%rdx), %rbp
	.seh_endprologue
	movq	-16(%rbp), %rcx
	callq	_ZN72_$LT$alloc..boxed..Box$LT$T$C$A$GT$$u20$as$u20$core..ops..drop..Drop$GT$4drop17h28d9df11c24f9854E
	nop
	addq	$32, %rsp
	popq	%rbp
	retq
.Lfunc_end12:
	.seh_handlerdata
	.section	.text,"xr",one_only,_ZN4core3ptr68drop_in_place$LT$alloc..boxed..Box$LT$std..io..error..Custom$GT$$GT$17h5b2305e5cc6a7c3dE
	.seh_endproc
	.section	.xdata,"dr",associative,_ZN4core3ptr68drop_in_place$LT$alloc..boxed..Box$LT$std..io..error..Custom$GT$$GT$17h5b2305e5cc6a7c3dE
	.p2align	2, 0x0
$cppxdata$_ZN4core3ptr68drop_in_place$LT$alloc..boxed..Box$LT$std..io..error..Custom$GT$$GT$17h5b2305e5cc6a7c3dE:
	.long	429065506
	.long	1
	.long	($stateUnwindMap$_ZN4core3ptr68drop_in_place$LT$alloc..boxed..Box$LT$std..io..error..Custom$GT$$GT$17h5b2305e5cc6a7c3dE)@IMGREL
	.long	0
	.long	0
	.long	3
	.long	($ip2state$_ZN4core3ptr68drop_in_place$LT$alloc..boxed..Box$LT$std..io..error..Custom$GT$$GT$17h5b2305e5cc6a7c3dE)@IMGREL
	.long	40
	.long	0
	.long	1
$stateUnwindMap$_ZN4core3ptr68drop_in_place$LT$alloc..boxed..Box$LT$std..io..error..Custom$GT$$GT$17h5b2305e5cc6a7c3dE:
	.long	-1
	.long	"?dtor$1@?0?_ZN4core3ptr68drop_in_place$LT$alloc..boxed..Box$LT$std..io..error..Custom$GT$$GT$17h5b2305e5cc6a7c3dE@4HA"@IMGREL
$ip2state$_ZN4core3ptr68drop_in_place$LT$alloc..boxed..Box$LT$std..io..error..Custom$GT$$GT$17h5b2305e5cc6a7c3dE:
	.long	.Lfunc_begin12@IMGREL
	.long	-1
	.long	.Ltmp38@IMGREL+1
	.long	0
	.long	.Ltmp39@IMGREL+1
	.long	-1
	.section	.text,"xr",one_only,_ZN4core3ptr68drop_in_place$LT$alloc..boxed..Box$LT$std..io..error..Custom$GT$$GT$17h5b2305e5cc6a7c3dE

	.def	_ZN4core3ptr72drop_in_place$LT$std..panicking..begin_panic..Payload$LT$$RF$str$GT$$GT$17he4bc603e189a46b9E;
	.scl	3;
	.type	32;
	.endef
	.section	.text,"xr",one_only,_ZN4core3ptr72drop_in_place$LT$std..panicking..begin_panic..Payload$LT$$RF$str$GT$$GT$17he4bc603e189a46b9E
	.p2align	4, 0x90
_ZN4core3ptr72drop_in_place$LT$std..panicking..begin_panic..Payload$LT$$RF$str$GT$$GT$17he4bc603e189a46b9E:
	retq

	.def	_ZN4core3ptr85drop_in_place$LT$std..rt..lang_start$LT$$LP$$RP$$GT$..$u7b$$u7b$closure$u7d$$u7d$$GT$17h03fbc46c420fdd55E;
	.scl	3;
	.type	32;
	.endef
	.section	.text,"xr",one_only,_ZN4core3ptr85drop_in_place$LT$std..rt..lang_start$LT$$LP$$RP$$GT$..$u7b$$u7b$closure$u7d$$u7d$$GT$17h03fbc46c420fdd55E
	.p2align	4, 0x90
_ZN4core3ptr85drop_in_place$LT$std..rt..lang_start$LT$$LP$$RP$$GT$..$u7b$$u7b$closure$u7d$$u7d$$GT$17h03fbc46c420fdd55E:
	retq

	.def	_ZN4core3ptr93drop_in_place$LT$dyn$u20$core..error..Error$u2b$core..marker..Send$u2b$core..marker..Sync$GT$17h13c41c2220041c6aE;
	.scl	3;
	.type	32;
	.endef
	.section	.text,"xr",one_only,_ZN4core3ptr93drop_in_place$LT$dyn$u20$core..error..Error$u2b$core..marker..Send$u2b$core..marker..Sync$GT$17h13c41c2220041c6aE
	.p2align	4, 0x90
_ZN4core3ptr93drop_in_place$LT$dyn$u20$core..error..Error$u2b$core..marker..Send$u2b$core..marker..Sync$GT$17h13c41c2220041c6aE:
.seh_proc _ZN4core3ptr93drop_in_place$LT$dyn$u20$core..error..Error$u2b$core..marker..Send$u2b$core..marker..Sync$GT$17h13c41c2220041c6aE
	subq	$40, %rsp
	.seh_stackalloc 40
	.seh_endprologue
	callq	*(%rdx)
	nop
	addq	$40, %rsp
	retq
	.seh_endproc

	.def	_ZN4core3str11validations15next_code_point17h4e1e1ba30da8a832E;
	.scl	3;
	.type	32;
	.endef
	.section	.text,"xr",one_only,_ZN4core3str11validations15next_code_point17h4e1e1ba30da8a832E
	.p2align	4, 0x90
_ZN4core3str11validations15next_code_point17h4e1e1ba30da8a832E:
.seh_proc _ZN4core3str11validations15next_code_point17h4e1e1ba30da8a832E
	subq	$120, %rsp
	.seh_stackalloc 120
	.seh_endprologue
	movq	%rcx, 56(%rsp)
	callq	_ZN91_$LT$core..slice..iter..Iter$LT$T$GT$$u20$as$u20$core..iter..traits..iterator..Iterator$GT$4next17h6de37a960b4f4003E
	movq	%rax, 80(%rsp)
	movq	80(%rsp), %rdx
	movl	$1, %eax
	xorl	%ecx, %ecx
	cmpq	$0, %rdx
	cmoveq	%rcx, %rax
	cmpq	$0, %rax
	jne	.LBB59_2
	movq	$0, 72(%rsp)
	jmp	.LBB59_3
.LBB59_2:
	movq	80(%rsp), %rax
	movq	%rax, 72(%rsp)
.LBB59_3:
	movq	72(%rsp), %rdx
	xorl	%eax, %eax
	movl	$1, %ecx
	cmpq	$0, %rdx
	cmoveq	%rcx, %rax
	cmpq	$0, %rax
	jne	.LBB59_5
	movq	72(%rsp), %rax
	movb	(%rax), %al
	movb	%al, 55(%rsp)
	cmpb	$-128, %al
	jb	.LBB59_7
	jmp	.LBB59_6
.LBB59_5:
	movl	$0, 64(%rsp)
	jmp	.LBB59_12
.LBB59_6:
	movb	55(%rsp), %al
	movq	56(%rsp), %rcx
	andb	$31, %al
	movzbl	%al, %eax
	movl	%eax, 48(%rsp)
	callq	_ZN91_$LT$core..slice..iter..Iter$LT$T$GT$$u20$as$u20$core..iter..traits..iterator..Iterator$GT$4next17h6de37a960b4f4003E
	movl	48(%rsp), %ecx
	movq	%rax, %rdx
	movb	55(%rsp), %al
	movq	%rdx, 88(%rsp)
	movq	88(%rsp), %rdx
	movb	(%rdx), %dl
	movb	%dl, 54(%rsp)
	shll	$6, %ecx
	andb	$63, %dl
	movzbl	%dl, %edx
	orl	%edx, %ecx
	movl	%ecx, 100(%rsp)
	cmpb	$-32, %al
	jae	.LBB59_9
	jmp	.LBB59_8
.LBB59_7:
	movb	55(%rsp), %al
	movzbl	%al, %eax
	movl	%eax, 68(%rsp)
	movl	$1, 64(%rsp)
	jmp	.LBB59_12
.LBB59_8:
	movl	100(%rsp), %eax
	movl	%eax, 68(%rsp)
	movl	$1, 64(%rsp)
	jmp	.LBB59_12
.LBB59_9:
	movq	56(%rsp), %rcx
	callq	_ZN91_$LT$core..slice..iter..Iter$LT$T$GT$$u20$as$u20$core..iter..traits..iterator..Iterator$GT$4next17h6de37a960b4f4003E
	movb	54(%rsp), %dl
	movl	48(%rsp), %ecx
	movq	%rax, %r8
	movb	55(%rsp), %al
	movq	%r8, 104(%rsp)
	movq	104(%rsp), %r8
	movb	(%r8), %r8b
	andb	$63, %dl
	movzbl	%dl, %edx
	shll	$6, %edx
	andb	$63, %r8b
	movzbl	%r8b, %r8d
	orl	%r8d, %edx
	movl	%edx, 44(%rsp)
	shll	$12, %ecx
	orl	%edx, %ecx
	movl	%ecx, 100(%rsp)
	cmpb	$-16, %al
	jae	.LBB59_11
.LBB59_10:
	jmp	.LBB59_8
.LBB59_11:
	movq	56(%rsp), %rcx
	callq	_ZN91_$LT$core..slice..iter..Iter$LT$T$GT$$u20$as$u20$core..iter..traits..iterator..Iterator$GT$4next17h6de37a960b4f4003E
	movl	44(%rsp), %ecx
	movq	%rax, %rdx
	movl	48(%rsp), %eax
	movq	%rdx, 112(%rsp)
	movq	112(%rsp), %rdx
	movb	(%rdx), %dl
	andl	$7, %eax
	shll	$18, %eax
	shll	$6, %ecx
	andb	$63, %dl
	movzbl	%dl, %edx
	orl	%edx, %ecx
	orl	%ecx, %eax
	movl	%eax, 100(%rsp)
	jmp	.LBB59_10
.LBB59_12:
	movl	64(%rsp), %eax
	movl	68(%rsp), %edx
	addq	$120, %rsp
	retq
	.seh_endproc

	.def	_ZN4core3str21_$LT$impl$u20$str$GT$15split_inclusive17hb408a58fe3b86056E;
	.scl	3;
	.type	32;
	.endef
	.section	.text,"xr",one_only,_ZN4core3str21_$LT$impl$u20$str$GT$15split_inclusive17hb408a58fe3b86056E
	.p2align	4, 0x90
_ZN4core3str21_$LT$impl$u20$str$GT$15split_inclusive17hb408a58fe3b86056E:
.Lfunc_begin13:
.seh_proc _ZN4core3str21_$LT$impl$u20$str$GT$15split_inclusive17hb408a58fe3b86056E
	.seh_handler __CxxFrameHandler3, @unwind, @except
	pushq	%rbp
	.seh_pushreg %rbp
	subq	$192, %rsp
	.seh_stackalloc 192
	leaq	128(%rsp), %rbp
	.seh_setframe %rbp, 128
	.seh_endprologue
	movq	$-2, 56(%rbp)
	movl	%r9d, -84(%rbp)
	movq	%r8, %r9
	movq	%r9, -96(%rbp)
	movq	%rdx, %r8
	movl	-84(%rbp), %edx
	movq	%rcx, -80(%rbp)
	movq	%rcx, -72(%rbp)
.Ltmp40:
	leaq	8(%rbp), %rcx
	callq	_ZN52_$LT$char$u20$as$u20$core..str..pattern..Pattern$GT$13into_searcher17h1386d4758ddd13c8E
.Ltmp41:
	jmp	.LBB60_2
.LBB60_2:
	movq	-96(%rbp), %rax
	movq	$0, -64(%rbp)
	movq	%rax, -56(%rbp)
	leaq	-64(%rbp), %rcx
	addq	$16, %rcx
	leaq	8(%rbp), %rdx
	movl	$48, %r8d
	callq	memcpy
	movq	-80(%rbp), %rcx
	movb	$0, (%rbp)
	movb	$0, 1(%rbp)
	leaq	-64(%rbp), %rdx
	movl	$72, %r8d
	callq	memcpy
	movq	-72(%rbp), %rax
	addq	$192, %rsp
	popq	%rbp
	retq
	.seh_handlerdata
	.long	($cppxdata$_ZN4core3str21_$LT$impl$u20$str$GT$15split_inclusive17hb408a58fe3b86056E)@IMGREL
	.section	.text,"xr",one_only,_ZN4core3str21_$LT$impl$u20$str$GT$15split_inclusive17hb408a58fe3b86056E
	.seh_endproc
	.def	"?dtor$1@?0?_ZN4core3str21_$LT$impl$u20$str$GT$15split_inclusive17hb408a58fe3b86056E@4HA";
	.scl	3;
	.type	32;
	.endef
	.p2align	4, 0x90
"?dtor$1@?0?_ZN4core3str21_$LT$impl$u20$str$GT$15split_inclusive17hb408a58fe3b86056E@4HA":
.seh_proc "?dtor$1@?0?_ZN4core3str21_$LT$impl$u20$str$GT$15split_inclusive17hb408a58fe3b86056E@4HA"
.LBB60_1:
	movq	%rdx, 16(%rsp)
	pushq	%rbp
	.seh_pushreg %rbp
	subq	$32, %rsp
	.seh_stackalloc 32
	leaq	128(%rdx), %rbp
	.seh_endprologue
	addq	$32, %rsp
	popq	%rbp
	retq
.Lfunc_end13:
	.seh_handlerdata
	.section	.text,"xr",one_only,_ZN4core3str21_$LT$impl$u20$str$GT$15split_inclusive17hb408a58fe3b86056E
	.seh_endproc
	.section	.xdata,"dr",associative,_ZN4core3str21_$LT$impl$u20$str$GT$15split_inclusive17hb408a58fe3b86056E
	.p2align	2, 0x0
$cppxdata$_ZN4core3str21_$LT$impl$u20$str$GT$15split_inclusive17hb408a58fe3b86056E:
	.long	429065506
	.long	1
	.long	($stateUnwindMap$_ZN4core3str21_$LT$impl$u20$str$GT$15split_inclusive17hb408a58fe3b86056E)@IMGREL
	.long	0
	.long	0
	.long	3
	.long	($ip2state$_ZN4core3str21_$LT$impl$u20$str$GT$15split_inclusive17hb408a58fe3b86056E)@IMGREL
	.long	184
	.long	0
	.long	1
$stateUnwindMap$_ZN4core3str21_$LT$impl$u20$str$GT$15split_inclusive17hb408a58fe3b86056E:
	.long	-1
	.long	"?dtor$1@?0?_ZN4core3str21_$LT$impl$u20$str$GT$15split_inclusive17hb408a58fe3b86056E@4HA"@IMGREL
$ip2state$_ZN4core3str21_$LT$impl$u20$str$GT$15split_inclusive17hb408a58fe3b86056E:
	.long	.Lfunc_begin13@IMGREL
	.long	-1
	.long	.Ltmp40@IMGREL+1
	.long	0
	.long	.Ltmp41@IMGREL+1
	.long	-1
	.section	.text,"xr",one_only,_ZN4core3str21_$LT$impl$u20$str$GT$15split_inclusive17hb408a58fe3b86056E

	.def	_ZN4core3str21_$LT$impl$u20$str$GT$3len17h01f03c99476b1e4cE;
	.scl	3;
	.type	32;
	.endef
	.section	.text,"xr",one_only,_ZN4core3str21_$LT$impl$u20$str$GT$3len17h01f03c99476b1e4cE
	.p2align	4, 0x90
_ZN4core3str21_$LT$impl$u20$str$GT$3len17h01f03c99476b1e4cE:
	movq	%rdx, %rax
	retq

	.def	_ZN4core3str21_$LT$impl$u20$str$GT$5chars17h910008a8e6b17e7eE;
	.scl	3;
	.type	32;
	.endef
	.section	.text,"xr",one_only,_ZN4core3str21_$LT$impl$u20$str$GT$5chars17h910008a8e6b17e7eE
	.p2align	4, 0x90
_ZN4core3str21_$LT$impl$u20$str$GT$5chars17h910008a8e6b17e7eE:
.seh_proc _ZN4core3str21_$LT$impl$u20$str$GT$5chars17h910008a8e6b17e7eE
	subq	$40, %rsp
	.seh_stackalloc 40
	.seh_endprologue
	movq	%rcx, %rax
	movq	%rax, %rcx
	addq	%rdx, %rcx
	movq	%rax, 32(%rsp)
	movq	32(%rsp), %rax
	movq	%rax, 16(%rsp)
	movq	%rcx, 24(%rsp)
	movq	16(%rsp), %rcx
	movq	24(%rsp), %rax
	movq	%rcx, (%rsp)
	movq	%rax, 8(%rsp)
	movq	(%rsp), %rax
	movq	8(%rsp), %rdx
	addq	$40, %rsp
	retq
	.seh_endproc

	.def	_ZN4core3str21_$LT$impl$u20$str$GT$5lines17h83d30018441fe94cE;
	.scl	3;
	.type	32;
	.endef
	.section	.text,"xr",one_only,_ZN4core3str21_$LT$impl$u20$str$GT$5lines17h83d30018441fe94cE
	.p2align	4, 0x90
_ZN4core3str21_$LT$impl$u20$str$GT$5lines17h83d30018441fe94cE:
.seh_proc _ZN4core3str21_$LT$impl$u20$str$GT$5lines17h83d30018441fe94cE
	subq	$200, %rsp
	.seh_stackalloc 200
	.seh_endprologue
	movq	%rcx, 40(%rsp)
	movq	%rcx, 48(%rsp)
	leaq	128(%rsp), %rcx
	movl	$10, %r9d
	callq	_ZN4core3str21_$LT$impl$u20$str$GT$15split_inclusive17hb408a58fe3b86056E
	leaq	56(%rsp), %rcx
	leaq	128(%rsp), %rdx
	movl	$72, %r8d
	callq	memcpy
	movq	40(%rsp), %rcx
	leaq	56(%rsp), %rdx
	movl	$72, %r8d
	callq	memcpy
	movq	48(%rsp), %rax
	addq	$200, %rsp
	retq
	.seh_endproc

	.def	_ZN4core3str4iter22SplitInternal$LT$P$GT$14next_inclusive17hf069bc3eb8628979E;
	.scl	3;
	.type	32;
	.endef
	.section	.text,"xr",one_only,_ZN4core3str4iter22SplitInternal$LT$P$GT$14next_inclusive17hf069bc3eb8628979E
	.p2align	4, 0x90
_ZN4core3str4iter22SplitInternal$LT$P$GT$14next_inclusive17hf069bc3eb8628979E:
.seh_proc _ZN4core3str4iter22SplitInternal$LT$P$GT$14next_inclusive17hf069bc3eb8628979E
	subq	$120, %rsp
	.seh_stackalloc 120
	.seh_endprologue
	movq	%rcx, 40(%rsp)
	testb	$1, 65(%rcx)
	jne	.LBB64_2
	movq	40(%rsp), %rcx
	addq	$16, %rcx
	callq	_ZN81_$LT$core..str..pattern..CharSearcher$u20$as$u20$core..str..pattern..Searcher$GT$8haystack17h40e95e2ba80fc323E
	movq	%rax, 32(%rsp)
	movq	40(%rsp), %rdx
	addq	$16, %rdx
	leaq	64(%rsp), %rcx
	callq	_ZN81_$LT$core..str..pattern..CharSearcher$u20$as$u20$core..str..pattern..Searcher$GT$10next_match17hdb22031b73daad5cE
	cmpq	$0, 64(%rsp)
	je	.LBB64_3
	jmp	.LBB64_4
.LBB64_2:
	movq	$0, 48(%rsp)
	jmp	.LBB64_6
.LBB64_3:
	movq	40(%rsp), %rcx
	callq	_ZN4core3str4iter22SplitInternal$LT$P$GT$7get_end17h565818824b00db5dE
	movq	%rdx, 56(%rsp)
	movq	%rax, 48(%rsp)
	jmp	.LBB64_5
.LBB64_4:
	movq	40(%rsp), %rdx
	movq	32(%rsp), %rcx
	movq	80(%rsp), %r8
	movq	(%rdx), %r9
	addq	%r9, %rcx
	movq	%r8, %rax
	subq	%r9, %rax
	movq	%rcx, 104(%rsp)
	movq	%rax, 112(%rsp)
	movq	104(%rsp), %rcx
	movq	112(%rsp), %rax
	movq	%rcx, 88(%rsp)
	movq	%rax, 96(%rsp)
	movq	88(%rsp), %rcx
	movq	96(%rsp), %rax
	movq	%r8, (%rdx)
	movq	%rcx, 48(%rsp)
	movq	%rax, 56(%rsp)
.LBB64_5:
	jmp	.LBB64_6
.LBB64_6:
	movq	48(%rsp), %rax
	movq	56(%rsp), %rdx
	addq	$120, %rsp
	retq
	.seh_endproc

	.def	_ZN4core3str4iter22SplitInternal$LT$P$GT$7get_end17h565818824b00db5dE;
	.scl	3;
	.type	32;
	.endef
	.section	.text,"xr",one_only,_ZN4core3str4iter22SplitInternal$LT$P$GT$7get_end17h565818824b00db5dE
	.p2align	4, 0x90
_ZN4core3str4iter22SplitInternal$LT$P$GT$7get_end17h565818824b00db5dE:
.seh_proc _ZN4core3str4iter22SplitInternal$LT$P$GT$7get_end17h565818824b00db5dE
	subq	$88, %rsp
	.seh_stackalloc 88
	.seh_endprologue
	movq	%rcx, 32(%rsp)
	testb	$1, 65(%rcx)
	jne	.LBB65_2
	movq	32(%rsp), %rax
	movb	$1, 65(%rax)
	testb	$1, 64(%rax)
	jne	.LBB65_4
	jmp	.LBB65_3
.LBB65_2:
	movq	$0, 40(%rsp)
	jmp	.LBB65_6
.LBB65_3:
	movq	32(%rsp), %rcx
	movq	8(%rcx), %rax
	subq	(%rcx), %rax
	cmpq	$0, %rax
	jbe	.LBB65_5
.LBB65_4:
	movq	32(%rsp), %rcx
	addq	$16, %rcx
	callq	_ZN81_$LT$core..str..pattern..CharSearcher$u20$as$u20$core..str..pattern..Searcher$GT$8haystack17h40e95e2ba80fc323E
	movq	%rax, %rcx
	movq	32(%rsp), %rax
	movq	(%rax), %rdx
	movq	8(%rax), %rax
	addq	%rdx, %rcx
	subq	%rdx, %rax
	movq	%rcx, 72(%rsp)
	movq	%rax, 80(%rsp)
	movq	72(%rsp), %rcx
	movq	80(%rsp), %rax
	movq	%rcx, 56(%rsp)
	movq	%rax, 64(%rsp)
	movq	56(%rsp), %rcx
	movq	64(%rsp), %rax
	movq	%rcx, 40(%rsp)
	movq	%rax, 48(%rsp)
	jmp	.LBB65_6
.LBB65_5:
	jmp	.LBB65_2
.LBB65_6:
	movq	40(%rsp), %rax
	movq	48(%rsp), %rdx
	addq	$88, %rsp
	retq
	.seh_endproc

	.def	_ZN4core4char7methods15encode_utf8_raw17hf5141903a742ea7aE;
	.scl	3;
	.type	32;
	.endef
	.section	.text,"xr",one_only,_ZN4core4char7methods15encode_utf8_raw17hf5141903a742ea7aE
	.p2align	4, 0x90
_ZN4core4char7methods15encode_utf8_raw17hf5141903a742ea7aE:
.seh_proc _ZN4core4char7methods15encode_utf8_raw17hf5141903a742ea7aE
	subq	$264, %rsp
	.seh_stackalloc 264
	.seh_endprologue
	movq	%r8, 64(%rsp)
	movq	%rdx, 72(%rsp)
	movl	%ecx, 84(%rsp)
	movl	84(%rsp), %eax
	movl	%eax, 80(%rsp)
	cmpl	$128, %eax
	jb	.LBB66_2
	movl	80(%rsp), %eax
	cmpl	$2048, %eax
	jb	.LBB66_4
	jmp	.LBB66_3
.LBB66_2:
	movq	$1, 88(%rsp)
	jmp	.LBB66_9
.LBB66_3:
	movl	80(%rsp), %eax
	cmpl	$65536, %eax
	jb	.LBB66_6
	jmp	.LBB66_5
.LBB66_4:
	movq	$2, 88(%rsp)
	jmp	.LBB66_8
.LBB66_5:
	movq	$4, 88(%rsp)
	jmp	.LBB66_7
.LBB66_6:
	movq	$3, 88(%rsp)
.LBB66_7:
	jmp	.LBB66_8
.LBB66_8:
	jmp	.LBB66_9
.LBB66_9:
	movq	88(%rsp), %rax
	decq	%rax
	movq	%rax, 56(%rsp)
	subq	$3, %rax
	ja	.LBB66_10
	movq	56(%rsp), %rax
	leaq	.LJTI66_0(%rip), %rcx
	movslq	(%rcx,%rax,4), %rax
	addq	%rcx, %rax
	jmpq	*%rax
.LBB66_10:
	movq	64(%rsp), %rcx
	leaq	88(%rsp), %rax
	movq	%rax, 192(%rsp)
	leaq	_ZN4core3fmt3num3imp54_$LT$impl$u20$core..fmt..Display$u20$for$u20$usize$GT$3fmt17hd1da17af6c86eb5aE(%rip), %rax
	movq	%rax, 200(%rsp)
	leaq	84(%rsp), %rdx
	movq	%rdx, 208(%rsp)
	leaq	_ZN4core3fmt3num53_$LT$impl$u20$core..fmt..UpperHex$u20$for$u20$u32$GT$3fmt17h27b64089fde6459eE(%rip), %rdx
	movq	%rdx, 216(%rsp)
	movq	%rcx, 240(%rsp)
	leaq	240(%rsp), %rcx
	movq	%rcx, 224(%rsp)
	movq	%rax, 232(%rsp)
	movq	192(%rsp), %rcx
	movq	200(%rsp), %rax
	movq	%rcx, 144(%rsp)
	movq	%rax, 152(%rsp)
	movq	208(%rsp), %rcx
	movq	216(%rsp), %rax
	movq	%rcx, 160(%rsp)
	movq	%rax, 168(%rsp)
	movq	224(%rsp), %rcx
	movq	232(%rsp), %rax
	movq	%rcx, 176(%rsp)
	movq	%rax, 184(%rsp)
	movq	%rsp, %rax
	movq	$3, 32(%rax)
	leaq	__unnamed_9(%rip), %rdx
	leaq	96(%rsp), %rcx
	movq	%rcx, 48(%rsp)
	movl	$3, %r8d
	leaq	144(%rsp), %r9
	callq	_ZN4core3fmt9Arguments6new_v117h0061d676988942a2E
	movq	48(%rsp), %rcx
	leaq	__unnamed_10(%rip), %rdx
	callq	_ZN4core9panicking9panic_fmt17ha5dd7a91f3010b68E
.LBB66_11:
	movq	64(%rsp), %rax
	cmpq	$1, %rax
	jae	.LBB66_15
	jmp	.LBB66_10
.LBB66_12:
	movq	64(%rsp), %rax
	cmpq	$2, %rax
	jae	.LBB66_17
	jmp	.LBB66_10
.LBB66_13:
	movq	64(%rsp), %rax
	cmpq	$3, %rax
	jae	.LBB66_18
	jmp	.LBB66_10
.LBB66_14:
	movq	64(%rsp), %rax
	cmpq	$4, %rax
	jae	.LBB66_19
	jmp	.LBB66_10
.LBB66_15:
	movq	72(%rsp), %rax
	movl	84(%rsp), %ecx
	movb	%cl, (%rax)
.LBB66_16:
	movq	64(%rsp), %r9
	movq	72(%rsp), %r8
	movq	88(%rsp), %rax
	movq	$0, 248(%rsp)
	movq	%rax, 256(%rsp)
	movq	248(%rsp), %rcx
	movq	256(%rsp), %rdx
	leaq	__unnamed_11(%rip), %r10
	movq	%rsp, %rax
	movq	%r10, 32(%rax)
	callq	_ZN106_$LT$core..ops..range..Range$LT$usize$GT$$u20$as$u20$core..slice..index..SliceIndex$LT$$u5b$T$u5d$$GT$$GT$9index_mut17hdc558cf9012288efE
	nop
	addq	$264, %rsp
	retq
.LBB66_17:
	movq	72(%rsp), %rax
	movl	84(%rsp), %ecx
	shrl	$6, %ecx
	andl	$31, %ecx
	orb	$-64, %cl
	movb	%cl, (%rax)
	movl	84(%rsp), %ecx
	andl	$63, %ecx
	orb	$-128, %cl
	movb	%cl, 1(%rax)
	jmp	.LBB66_16
.LBB66_18:
	movq	72(%rsp), %rax
	movl	84(%rsp), %ecx
	shrl	$12, %ecx
	andl	$15, %ecx
	orb	$-32, %cl
	movb	%cl, (%rax)
	movl	84(%rsp), %ecx
	shrl	$6, %ecx
	andl	$63, %ecx
	orb	$-128, %cl
	movb	%cl, 1(%rax)
	movl	84(%rsp), %ecx
	andl	$63, %ecx
	orb	$-128, %cl
	movb	%cl, 2(%rax)
	jmp	.LBB66_16
.LBB66_19:
	movq	72(%rsp), %rax
	movl	84(%rsp), %ecx
	shrl	$18, %ecx
	andl	$7, %ecx
	orb	$-16, %cl
	movb	%cl, (%rax)
	movl	84(%rsp), %ecx
	shrl	$12, %ecx
	andl	$63, %ecx
	orb	$-128, %cl
	movb	%cl, 1(%rax)
	movl	84(%rsp), %ecx
	shrl	$6, %ecx
	andl	$63, %ecx
	orb	$-128, %cl
	movb	%cl, 2(%rax)
	movl	84(%rsp), %ecx
	andl	$63, %ecx
	orb	$-128, %cl
	movb	%cl, 3(%rax)
	jmp	.LBB66_16
	.section	.rdata,"dr",associative,_ZN4core4char7methods15encode_utf8_raw17hf5141903a742ea7aE
	.p2align	2, 0x0
.LJTI66_0:
	.long	.LBB66_11-.LJTI66_0
	.long	.LBB66_12-.LJTI66_0
	.long	.LBB66_13-.LJTI66_0
	.long	.LBB66_14-.LJTI66_0
	.section	.text,"xr",one_only,_ZN4core4char7methods15encode_utf8_raw17hf5141903a742ea7aE
	.seh_endproc

	.def	_ZN4core4char7methods22_$LT$impl$u20$char$GT$8to_digit17h1904cce5743d0ea3E;
	.scl	3;
	.type	32;
	.endef
	.section	.text,"xr",one_only,_ZN4core4char7methods22_$LT$impl$u20$char$GT$8to_digit17h1904cce5743d0ea3E
	.p2align	4, 0x90
_ZN4core4char7methods22_$LT$impl$u20$char$GT$8to_digit17h1904cce5743d0ea3E:
.seh_proc _ZN4core4char7methods22_$LT$impl$u20$char$GT$8to_digit17h1904cce5743d0ea3E
	subq	$184, %rsp
	.seh_stackalloc 184
	.seh_endprologue
	movl	%edx, 44(%rsp)
	movl	%ecx, 48(%rsp)
	subl	$48, %ecx
	movl	%ecx, 60(%rsp)
	cmpl	$10, %edx
	ja	.LBB67_2
.LBB67_1:
	movl	44(%rsp), %eax
	cmpl	%eax, 60(%rsp)
	jb	.LBB67_10
	jmp	.LBB67_9
.LBB67_2:
	movl	44(%rsp), %eax
	cmpl	$36, %eax
	jbe	.LBB67_4
	xorl	%eax, %eax
	testb	$1, %al
	jne	.LBB67_6
	jmp	.LBB67_5
.LBB67_4:
	cmpl	$10, 60(%rsp)
	jb	.LBB67_8
	jmp	.LBB67_7
.LBB67_5:
	movq	$0, 160(%rsp)
	leaq	__unnamed_12(%rip), %rax
	movq	%rax, 64(%rsp)
	movq	$1, 72(%rsp)
	movq	160(%rsp), %rcx
	movq	168(%rsp), %rax
	movq	%rcx, 96(%rsp)
	movq	%rax, 104(%rsp)
	leaq	__unnamed_6(%rip), %rax
	movq	%rax, 80(%rsp)
	movq	$0, 88(%rsp)
	leaq	__unnamed_13(%rip), %rdx
	leaq	64(%rsp), %rcx
	callq	_ZN4core9panicking9panic_fmt17ha5dd7a91f3010b68E
.LBB67_6:
	leaq	__unnamed_5(%rip), %rdx
	leaq	112(%rsp), %rcx
	movq	%rcx, 32(%rsp)
	movl	$1, %r8d
	callq	_ZN4core3fmt9Arguments9new_const17h3810d366fc005d6cE
	movq	32(%rsp), %rcx
	leaq	__unnamed_8(%rip), %rdx
	callq	_ZN4core9panicking9panic_fmt17ha5dd7a91f3010b68E
.LBB67_7:
	movl	48(%rsp), %eax
	orl	$32, %eax
	subl	$97, %eax
	addl	$10, %eax
	movl	$-1, %ecx
	cmovbl	%ecx, %eax
	movl	%eax, 180(%rsp)
	movl	180(%rsp), %eax
	movl	%eax, 60(%rsp)
	jmp	.LBB67_1
.LBB67_8:
	movl	60(%rsp), %eax
	movl	%eax, 56(%rsp)
	movl	$1, 52(%rsp)
	jmp	.LBB67_12
.LBB67_9:
	movl	$0, 52(%rsp)
	jmp	.LBB67_11
.LBB67_10:
	movl	60(%rsp), %eax
	movl	%eax, 56(%rsp)
	movl	$1, 52(%rsp)
.LBB67_11:
	jmp	.LBB67_12
.LBB67_12:
	movl	52(%rsp), %eax
	movl	56(%rsp), %edx
	addq	$184, %rsp
	retq
	.seh_endproc

	.def	_ZN4core4iter5range101_$LT$impl$u20$core..iter..traits..iterator..Iterator$u20$for$u20$core..ops..range..Range$LT$A$GT$$GT$4next17hede07e26537546f5E;
	.scl	3;
	.type	32;
	.endef
	.section	.text,"xr",one_only,_ZN4core4iter5range101_$LT$impl$u20$core..iter..traits..iterator..Iterator$u20$for$u20$core..ops..range..Range$LT$A$GT$$GT$4next17hede07e26537546f5E
	.p2align	4, 0x90
_ZN4core4iter5range101_$LT$impl$u20$core..iter..traits..iterator..Iterator$u20$for$u20$core..ops..range..Range$LT$A$GT$$GT$4next17hede07e26537546f5E:
.seh_proc _ZN4core4iter5range101_$LT$impl$u20$core..iter..traits..iterator..Iterator$u20$for$u20$core..ops..range..Range$LT$A$GT$$GT$4next17hede07e26537546f5E
	subq	$40, %rsp
	.seh_stackalloc 40
	.seh_endprologue
	callq	_ZN89_$LT$core..ops..range..Range$LT$T$GT$$u20$as$u20$core..iter..range..RangeIteratorImpl$GT$9spec_next17h2645a05bfd4ecf44E
	nop
	addq	$40, %rsp
	retq
	.seh_endproc

	.def	_ZN4core4iter6traits8iterator8Iterator3map17h1863bfcde30a18f0E;
	.scl	3;
	.type	32;
	.endef
	.section	.text,"xr",one_only,_ZN4core4iter6traits8iterator8Iterator3map17h1863bfcde30a18f0E
	.p2align	4, 0x90
_ZN4core4iter6traits8iterator8Iterator3map17h1863bfcde30a18f0E:
	movq	%rcx, %rax
	movq	%rdx, 8(%rcx)
	movq	%r8, 16(%rcx)
	movq	%r9, (%rcx)
	retq

	.def	_ZN4core4iter6traits8iterator8Iterator3map17h3582449eefcc2718E;
	.scl	3;
	.type	32;
	.endef
	.section	.text,"xr",one_only,_ZN4core4iter6traits8iterator8Iterator3map17h3582449eefcc2718E
	.p2align	4, 0x90
_ZN4core4iter6traits8iterator8Iterator3map17h3582449eefcc2718E:
.seh_proc _ZN4core4iter6traits8iterator8Iterator3map17h3582449eefcc2718E
	subq	$16, %rsp
	.seh_stackalloc 16
	.seh_endprologue
	movq	%rcx, (%rsp)
	movq	%rdx, 8(%rsp)
	movq	(%rsp), %rax
	movq	8(%rsp), %rdx
	addq	$16, %rsp
	retq
	.seh_endproc

	.def	_ZN4core4iter6traits8iterator8Iterator3map17ha37f4f3fe7cc4886E;
	.scl	3;
	.type	32;
	.endef
	.section	.text,"xr",one_only,_ZN4core4iter6traits8iterator8Iterator3map17ha37f4f3fe7cc4886E
	.p2align	4, 0x90
_ZN4core4iter6traits8iterator8Iterator3map17ha37f4f3fe7cc4886E:
.seh_proc _ZN4core4iter6traits8iterator8Iterator3map17ha37f4f3fe7cc4886E
	subq	$40, %rsp
	.seh_stackalloc 40
	.seh_endprologue
	movq	%rcx, %rax
	movq	%rax, 32(%rsp)
	movl	$72, %r8d
	callq	memcpy
	movq	32(%rsp), %rax
	addq	$40, %rsp
	retq
	.seh_endproc

	.def	_ZN4core4iter6traits8iterator8Iterator4find17h7afc9d13d58a1cffE;
	.scl	3;
	.type	32;
	.endef
	.section	.text,"xr",one_only,_ZN4core4iter6traits8iterator8Iterator4find17h7afc9d13d58a1cffE
	.p2align	4, 0x90
_ZN4core4iter6traits8iterator8Iterator4find17h7afc9d13d58a1cffE:
.seh_proc _ZN4core4iter6traits8iterator8Iterator4find17h7afc9d13d58a1cffE
	subq	$88, %rsp
	.seh_stackalloc 88
	.seh_endprologue
	movq	16(%rdx), %rax
	movq	%rax, 80(%rsp)
	movups	(%rdx), %xmm0
	movaps	%xmm0, 64(%rsp)
	leaq	64(%rsp), %rdx
	callq	_ZN4core4iter6traits8iterator8Iterator8try_fold17h5447e38b0534f1f5E
	movq	%rdx, 56(%rsp)
	movq	%rax, 48(%rsp)
	cmpq	$0, 48(%rsp)
	jne	.LBB72_2
	movq	$0, 32(%rsp)
	jmp	.LBB72_3
.LBB72_2:
	movq	56(%rsp), %rax
	movq	%rax, 40(%rsp)
	movq	$1, 32(%rsp)
.LBB72_3:
	cmpq	$1, 48(%rsp)
	jne	.LBB72_5
.LBB72_4:
	movq	32(%rsp), %rax
	movq	40(%rsp), %rdx
	addq	$88, %rsp
	retq
.LBB72_5:
	jmp	.LBB72_4
	.seh_endproc

	.def	_ZN4core4iter6traits8iterator8Iterator4find17had76f83a7b9208e5E;
	.scl	3;
	.type	32;
	.endef
	.section	.text,"xr",one_only,_ZN4core4iter6traits8iterator8Iterator4find17had76f83a7b9208e5E
	.p2align	4, 0x90
_ZN4core4iter6traits8iterator8Iterator4find17had76f83a7b9208e5E:
.seh_proc _ZN4core4iter6traits8iterator8Iterator4find17had76f83a7b9208e5E
	subq	$88, %rsp
	.seh_stackalloc 88
	.seh_endprologue
	movq	16(%rdx), %rax
	movq	%rax, 80(%rsp)
	movups	(%rdx), %xmm0
	movaps	%xmm0, 64(%rsp)
	leaq	64(%rsp), %rdx
	callq	_ZN4core4iter6traits8iterator8Iterator8try_fold17hb151dec2b4ec66ccE
	movq	%rdx, 56(%rsp)
	movq	%rax, 48(%rsp)
	cmpq	$0, 48(%rsp)
	jne	.LBB73_2
	movq	$0, 32(%rsp)
	jmp	.LBB73_3
.LBB73_2:
	movq	56(%rsp), %rax
	movq	%rax, 40(%rsp)
	movq	$1, 32(%rsp)
.LBB73_3:
	cmpq	$1, 48(%rsp)
	jne	.LBB73_5
.LBB73_4:
	movq	32(%rsp), %rax
	movq	40(%rsp), %rdx
	addq	$88, %rsp
	retq
.LBB73_5:
	jmp	.LBB73_4
	.seh_endproc

	.def	_ZN4core4iter6traits8iterator8Iterator4find5check28_$u7b$$u7b$closure$u7d$$u7d$17h4f703b80ce1f8cf2E;
	.scl	3;
	.type	32;
	.endef
	.section	.text,"xr",one_only,_ZN4core4iter6traits8iterator8Iterator4find5check28_$u7b$$u7b$closure$u7d$$u7d$17h4f703b80ce1f8cf2E
	.p2align	4, 0x90
_ZN4core4iter6traits8iterator8Iterator4find5check28_$u7b$$u7b$closure$u7d$$u7d$17h4f703b80ce1f8cf2E:
.Lfunc_begin14:
.seh_proc _ZN4core4iter6traits8iterator8Iterator4find5check28_$u7b$$u7b$closure$u7d$$u7d$17h4f703b80ce1f8cf2E
	.seh_handler __CxxFrameHandler3, @unwind, @except
	pushq	%rbp
	.seh_pushreg %rbp
	subq	$96, %rsp
	.seh_stackalloc 96
	leaq	96(%rsp), %rbp
	.seh_setframe %rbp, 96
	.seh_endprologue
	movq	$-2, -8(%rbp)
	movq	%rdx, -48(%rbp)
	movb	$1, -9(%rbp)
	leaq	-48(%rbp), %rax
	movq	%rax, -24(%rbp)
	movq	-24(%rbp), %rdx
.Ltmp42:
	callq	_ZN4main4Grid7collumn28_$u7b$$u7b$closure$u7d$$u7d$17hfcbce009bcec87b7E
.Ltmp43:
	movb	%al, -49(%rbp)
	jmp	.LBB74_2
.LBB74_2:
	movb	-49(%rbp), %al
	testb	$1, %al
	jne	.LBB74_4
	jmp	.LBB74_3
.LBB74_3:
	movq	$0, -40(%rbp)
	jmp	.LBB74_5
.LBB74_4:
	movb	$0, -9(%rbp)
	movq	-48(%rbp), %rax
	movq	%rax, -32(%rbp)
	movq	$1, -40(%rbp)
.LBB74_5:
	testb	$1, -9(%rbp)
	jne	.LBB74_7
.LBB74_6:
	movq	-40(%rbp), %rax
	movq	-32(%rbp), %rdx
	addq	$96, %rsp
	popq	%rbp
	retq
.LBB74_7:
	jmp	.LBB74_6
	.seh_handlerdata
	.long	($cppxdata$_ZN4core4iter6traits8iterator8Iterator4find5check28_$u7b$$u7b$closure$u7d$$u7d$17h4f703b80ce1f8cf2E)@IMGREL
	.section	.text,"xr",one_only,_ZN4core4iter6traits8iterator8Iterator4find5check28_$u7b$$u7b$closure$u7d$$u7d$17h4f703b80ce1f8cf2E
	.seh_endproc
	.def	"?dtor$1@?0?_ZN4core4iter6traits8iterator8Iterator4find5check28_$u7b$$u7b$closure$u7d$$u7d$17h4f703b80ce1f8cf2E@4HA";
	.scl	3;
	.type	32;
	.endef
	.p2align	4, 0x90
"?dtor$1@?0?_ZN4core4iter6traits8iterator8Iterator4find5check28_$u7b$$u7b$closure$u7d$$u7d$17h4f703b80ce1f8cf2E@4HA":
.seh_proc "?dtor$1@?0?_ZN4core4iter6traits8iterator8Iterator4find5check28_$u7b$$u7b$closure$u7d$$u7d$17h4f703b80ce1f8cf2E@4HA"
.LBB74_1:
	movq	%rdx, 16(%rsp)
	pushq	%rbp
	.seh_pushreg %rbp
	subq	$32, %rsp
	.seh_stackalloc 32
	leaq	96(%rdx), %rbp
	.seh_endprologue
	addq	$32, %rsp
	popq	%rbp
	retq
.Lfunc_end14:
	.seh_handlerdata
	.section	.text,"xr",one_only,_ZN4core4iter6traits8iterator8Iterator4find5check28_$u7b$$u7b$closure$u7d$$u7d$17h4f703b80ce1f8cf2E
	.seh_endproc
	.section	.xdata,"dr",associative,_ZN4core4iter6traits8iterator8Iterator4find5check28_$u7b$$u7b$closure$u7d$$u7d$17h4f703b80ce1f8cf2E
	.p2align	2, 0x0
$cppxdata$_ZN4core4iter6traits8iterator8Iterator4find5check28_$u7b$$u7b$closure$u7d$$u7d$17h4f703b80ce1f8cf2E:
	.long	429065506
	.long	1
	.long	($stateUnwindMap$_ZN4core4iter6traits8iterator8Iterator4find5check28_$u7b$$u7b$closure$u7d$$u7d$17h4f703b80ce1f8cf2E)@IMGREL
	.long	0
	.long	0
	.long	3
	.long	($ip2state$_ZN4core4iter6traits8iterator8Iterator4find5check28_$u7b$$u7b$closure$u7d$$u7d$17h4f703b80ce1f8cf2E)@IMGREL
	.long	88
	.long	0
	.long	1
$stateUnwindMap$_ZN4core4iter6traits8iterator8Iterator4find5check28_$u7b$$u7b$closure$u7d$$u7d$17h4f703b80ce1f8cf2E:
	.long	-1
	.long	"?dtor$1@?0?_ZN4core4iter6traits8iterator8Iterator4find5check28_$u7b$$u7b$closure$u7d$$u7d$17h4f703b80ce1f8cf2E@4HA"@IMGREL
$ip2state$_ZN4core4iter6traits8iterator8Iterator4find5check28_$u7b$$u7b$closure$u7d$$u7d$17h4f703b80ce1f8cf2E:
	.long	.Lfunc_begin14@IMGREL
	.long	-1
	.long	.Ltmp42@IMGREL+1
	.long	0
	.long	.Ltmp43@IMGREL+1
	.long	-1
	.section	.text,"xr",one_only,_ZN4core4iter6traits8iterator8Iterator4find5check28_$u7b$$u7b$closure$u7d$$u7d$17h4f703b80ce1f8cf2E

	.def	_ZN4core4iter6traits8iterator8Iterator4find5check28_$u7b$$u7b$closure$u7d$$u7d$17h5854a36679dafcfaE;
	.scl	3;
	.type	32;
	.endef
	.section	.text,"xr",one_only,_ZN4core4iter6traits8iterator8Iterator4find5check28_$u7b$$u7b$closure$u7d$$u7d$17h5854a36679dafcfaE
	.p2align	4, 0x90
_ZN4core4iter6traits8iterator8Iterator4find5check28_$u7b$$u7b$closure$u7d$$u7d$17h5854a36679dafcfaE:
.Lfunc_begin15:
.seh_proc _ZN4core4iter6traits8iterator8Iterator4find5check28_$u7b$$u7b$closure$u7d$$u7d$17h5854a36679dafcfaE
	.seh_handler __CxxFrameHandler3, @unwind, @except
	pushq	%rbp
	.seh_pushreg %rbp
	subq	$96, %rsp
	.seh_stackalloc 96
	leaq	96(%rsp), %rbp
	.seh_setframe %rbp, 96
	.seh_endprologue
	movq	$-2, -8(%rbp)
	movq	%rdx, -48(%rbp)
	movb	$1, -9(%rbp)
	leaq	-48(%rbp), %rax
	movq	%rax, -24(%rbp)
	movq	-24(%rbp), %rdx
.Ltmp44:
	callq	_ZN4main4Grid3row28_$u7b$$u7b$closure$u7d$$u7d$17h5ded586c474d840aE
.Ltmp45:
	movb	%al, -49(%rbp)
	jmp	.LBB75_2
.LBB75_2:
	movb	-49(%rbp), %al
	testb	$1, %al
	jne	.LBB75_4
	jmp	.LBB75_3
.LBB75_3:
	movq	$0, -40(%rbp)
	jmp	.LBB75_5
.LBB75_4:
	movb	$0, -9(%rbp)
	movq	-48(%rbp), %rax
	movq	%rax, -32(%rbp)
	movq	$1, -40(%rbp)
.LBB75_5:
	testb	$1, -9(%rbp)
	jne	.LBB75_7
.LBB75_6:
	movq	-40(%rbp), %rax
	movq	-32(%rbp), %rdx
	addq	$96, %rsp
	popq	%rbp
	retq
.LBB75_7:
	jmp	.LBB75_6
	.seh_handlerdata
	.long	($cppxdata$_ZN4core4iter6traits8iterator8Iterator4find5check28_$u7b$$u7b$closure$u7d$$u7d$17h5854a36679dafcfaE)@IMGREL
	.section	.text,"xr",one_only,_ZN4core4iter6traits8iterator8Iterator4find5check28_$u7b$$u7b$closure$u7d$$u7d$17h5854a36679dafcfaE
	.seh_endproc
	.def	"?dtor$1@?0?_ZN4core4iter6traits8iterator8Iterator4find5check28_$u7b$$u7b$closure$u7d$$u7d$17h5854a36679dafcfaE@4HA";
	.scl	3;
	.type	32;
	.endef
	.p2align	4, 0x90
"?dtor$1@?0?_ZN4core4iter6traits8iterator8Iterator4find5check28_$u7b$$u7b$closure$u7d$$u7d$17h5854a36679dafcfaE@4HA":
.seh_proc "?dtor$1@?0?_ZN4core4iter6traits8iterator8Iterator4find5check28_$u7b$$u7b$closure$u7d$$u7d$17h5854a36679dafcfaE@4HA"
.LBB75_1:
	movq	%rdx, 16(%rsp)
	pushq	%rbp
	.seh_pushreg %rbp
	subq	$32, %rsp
	.seh_stackalloc 32
	leaq	96(%rdx), %rbp
	.seh_endprologue
	addq	$32, %rsp
	popq	%rbp
	retq
.Lfunc_end15:
	.seh_handlerdata
	.section	.text,"xr",one_only,_ZN4core4iter6traits8iterator8Iterator4find5check28_$u7b$$u7b$closure$u7d$$u7d$17h5854a36679dafcfaE
	.seh_endproc
	.section	.xdata,"dr",associative,_ZN4core4iter6traits8iterator8Iterator4find5check28_$u7b$$u7b$closure$u7d$$u7d$17h5854a36679dafcfaE
	.p2align	2, 0x0
$cppxdata$_ZN4core4iter6traits8iterator8Iterator4find5check28_$u7b$$u7b$closure$u7d$$u7d$17h5854a36679dafcfaE:
	.long	429065506
	.long	1
	.long	($stateUnwindMap$_ZN4core4iter6traits8iterator8Iterator4find5check28_$u7b$$u7b$closure$u7d$$u7d$17h5854a36679dafcfaE)@IMGREL
	.long	0
	.long	0
	.long	3
	.long	($ip2state$_ZN4core4iter6traits8iterator8Iterator4find5check28_$u7b$$u7b$closure$u7d$$u7d$17h5854a36679dafcfaE)@IMGREL
	.long	88
	.long	0
	.long	1
$stateUnwindMap$_ZN4core4iter6traits8iterator8Iterator4find5check28_$u7b$$u7b$closure$u7d$$u7d$17h5854a36679dafcfaE:
	.long	-1
	.long	"?dtor$1@?0?_ZN4core4iter6traits8iterator8Iterator4find5check28_$u7b$$u7b$closure$u7d$$u7d$17h5854a36679dafcfaE@4HA"@IMGREL
$ip2state$_ZN4core4iter6traits8iterator8Iterator4find5check28_$u7b$$u7b$closure$u7d$$u7d$17h5854a36679dafcfaE:
	.long	.Lfunc_begin15@IMGREL
	.long	-1
	.long	.Ltmp44@IMGREL+1
	.long	0
	.long	.Ltmp45@IMGREL+1
	.long	-1
	.section	.text,"xr",one_only,_ZN4core4iter6traits8iterator8Iterator4find5check28_$u7b$$u7b$closure$u7d$$u7d$17h5854a36679dafcfaE

	.def	_ZN4core4iter6traits8iterator8Iterator4fold17h3f7f79dfd235aefaE;
	.scl	3;
	.type	32;
	.endef
	.section	.text,"xr",one_only,_ZN4core4iter6traits8iterator8Iterator4fold17h3f7f79dfd235aefaE
	.p2align	4, 0x90
_ZN4core4iter6traits8iterator8Iterator4fold17h3f7f79dfd235aefaE:
.Lfunc_begin16:
.seh_proc _ZN4core4iter6traits8iterator8Iterator4fold17h3f7f79dfd235aefaE
	.seh_handler __CxxFrameHandler3, @unwind, @except
	pushq	%rbp
	.seh_pushreg %rbp
	subq	$144, %rsp
	.seh_stackalloc 144
	leaq	128(%rsp), %rbp
	.seh_setframe %rbp, 128
	.seh_endprologue
	movq	$-2, 8(%rbp)
	movq	%rcx, -64(%rbp)
	movq	%rdx, -56(%rbp)
	movq	%r9, -48(%rbp)
	movb	$1, 7(%rbp)
	movq	%r8, -40(%rbp)
.LBB76_1:
.Ltmp46:
	leaq	-64(%rbp), %rcx
	callq	_ZN4core4iter5range101_$LT$impl$u20$core..iter..traits..iterator..Iterator$u20$for$u20$core..ops..range..Range$LT$A$GT$$GT$4next17hede07e26537546f5E
.Ltmp47:
	movq	%rdx, -80(%rbp)
	movq	%rax, -72(%rbp)
	jmp	.LBB76_3
.LBB76_3:
	movq	-80(%rbp), %rax
	movq	-72(%rbp), %rcx
	movq	%rcx, -32(%rbp)
	movq	%rax, -24(%rbp)
	cmpq	$1, -32(%rbp)
	jne	.LBB76_5
	movq	-24(%rbp), %rax
	movb	$0, 7(%rbp)
	movq	-40(%rbp), %rcx
	movq	%rcx, -16(%rbp)
	movq	%rax, -8(%rbp)
	movq	-16(%rbp), %rdx
	movq	-8(%rbp), %r8
.Ltmp48:
	leaq	-48(%rbp), %rcx
	callq	_ZN4core4iter8adapters3map8map_fold28_$u7b$$u7b$closure$u7d$$u7d$17h361281e383366611E
.Ltmp49:
	movq	%rax, -88(%rbp)
	jmp	.LBB76_6
.LBB76_5:
	movq	-40(%rbp), %rax
	addq	$144, %rsp
	popq	%rbp
	retq
.LBB76_6:
	movq	-88(%rbp), %rax
	movb	$1, 7(%rbp)
	movq	%rax, -40(%rbp)
	jmp	.LBB76_1
	.seh_handlerdata
	.long	($cppxdata$_ZN4core4iter6traits8iterator8Iterator4fold17h3f7f79dfd235aefaE)@IMGREL
	.section	.text,"xr",one_only,_ZN4core4iter6traits8iterator8Iterator4fold17h3f7f79dfd235aefaE
	.seh_endproc
	.def	"?dtor$2@?0?_ZN4core4iter6traits8iterator8Iterator4fold17h3f7f79dfd235aefaE@4HA";
	.scl	3;
	.type	32;
	.endef
	.p2align	4, 0x90
"?dtor$2@?0?_ZN4core4iter6traits8iterator8Iterator4fold17h3f7f79dfd235aefaE@4HA":
.seh_proc "?dtor$2@?0?_ZN4core4iter6traits8iterator8Iterator4fold17h3f7f79dfd235aefaE@4HA"
.LBB76_2:
	movq	%rdx, 16(%rsp)
	pushq	%rbp
	.seh_pushreg %rbp
	subq	$32, %rsp
	.seh_stackalloc 32
	leaq	128(%rdx), %rbp
	.seh_endprologue
	testb	$1, 7(%rbp)
	jne	.LBB76_8
	jmp	.LBB76_7
.LBB76_7:
	addq	$32, %rsp
	popq	%rbp
	retq
.LBB76_8:
	jmp	.LBB76_7
	.seh_handlerdata
	.section	.text,"xr",one_only,_ZN4core4iter6traits8iterator8Iterator4fold17h3f7f79dfd235aefaE
	.seh_endproc
	.def	"?dtor$9@?0?_ZN4core4iter6traits8iterator8Iterator4fold17h3f7f79dfd235aefaE@4HA";
	.scl	3;
	.type	32;
	.endef
	.p2align	4, 0x90
"?dtor$9@?0?_ZN4core4iter6traits8iterator8Iterator4fold17h3f7f79dfd235aefaE@4HA":
.seh_proc "?dtor$9@?0?_ZN4core4iter6traits8iterator8Iterator4fold17h3f7f79dfd235aefaE@4HA"
.LBB76_9:
	movq	%rdx, 16(%rsp)
	pushq	%rbp
	.seh_pushreg %rbp
	subq	$32, %rsp
	.seh_stackalloc 32
	leaq	128(%rdx), %rbp
	.seh_endprologue
	addq	$32, %rsp
	popq	%rbp
	retq
.Lfunc_end16:
	.seh_handlerdata
	.section	.text,"xr",one_only,_ZN4core4iter6traits8iterator8Iterator4fold17h3f7f79dfd235aefaE
	.seh_endproc
	.section	.xdata,"dr",associative,_ZN4core4iter6traits8iterator8Iterator4fold17h3f7f79dfd235aefaE
	.p2align	2, 0x0
$cppxdata$_ZN4core4iter6traits8iterator8Iterator4fold17h3f7f79dfd235aefaE:
	.long	429065506
	.long	2
	.long	($stateUnwindMap$_ZN4core4iter6traits8iterator8Iterator4fold17h3f7f79dfd235aefaE)@IMGREL
	.long	0
	.long	0
	.long	3
	.long	($ip2state$_ZN4core4iter6traits8iterator8Iterator4fold17h3f7f79dfd235aefaE)@IMGREL
	.long	136
	.long	0
	.long	1
$stateUnwindMap$_ZN4core4iter6traits8iterator8Iterator4fold17h3f7f79dfd235aefaE:
	.long	-1
	.long	"?dtor$9@?0?_ZN4core4iter6traits8iterator8Iterator4fold17h3f7f79dfd235aefaE@4HA"@IMGREL
	.long	0
	.long	"?dtor$2@?0?_ZN4core4iter6traits8iterator8Iterator4fold17h3f7f79dfd235aefaE@4HA"@IMGREL
$ip2state$_ZN4core4iter6traits8iterator8Iterator4fold17h3f7f79dfd235aefaE:
	.long	.Lfunc_begin16@IMGREL
	.long	-1
	.long	.Ltmp46@IMGREL+1
	.long	1
	.long	.Ltmp49@IMGREL+1
	.long	-1
	.section	.text,"xr",one_only,_ZN4core4iter6traits8iterator8Iterator4fold17h3f7f79dfd235aefaE

	.def	_ZN4core4iter6traits8iterator8Iterator4fold17ha9e57a1a17b4ad6aE;
	.scl	3;
	.type	32;
	.endef
	.section	.text,"xr",one_only,_ZN4core4iter6traits8iterator8Iterator4fold17ha9e57a1a17b4ad6aE
	.p2align	4, 0x90
_ZN4core4iter6traits8iterator8Iterator4fold17ha9e57a1a17b4ad6aE:
.Lfunc_begin17:
.seh_proc _ZN4core4iter6traits8iterator8Iterator4fold17ha9e57a1a17b4ad6aE
	.seh_handler __CxxFrameHandler3, @unwind, @except
	pushq	%rbp
	.seh_pushreg %rbp
	subq	$144, %rsp
	.seh_stackalloc 144
	leaq	128(%rsp), %rbp
	.seh_setframe %rbp, 128
	.seh_endprologue
	movq	$-2, 8(%rbp)
	movq	%rcx, -64(%rbp)
	movb	$1, 7(%rbp)
	movq	%rdx, -48(%rbp)
.LBB77_1:
.Ltmp50:
	movq	-64(%rbp), %rcx
	callq	_ZN81_$LT$core..str..iter..Lines$u20$as$u20$core..iter..traits..iterator..Iterator$GT$4next17hf7349eb203b54a66E
.Ltmp51:
	movq	%rdx, -80(%rbp)
	movq	%rax, -72(%rbp)
	jmp	.LBB77_3
.LBB77_3:
	movq	-80(%rbp), %rax
	movq	-72(%rbp), %rcx
	movq	%rcx, -40(%rbp)
	movq	%rax, -32(%rbp)
	movq	-40(%rbp), %rdx
	movl	$1, %eax
	xorl	%ecx, %ecx
	cmpq	$0, %rdx
	cmoveq	%rcx, %rax
	cmpq	$1, %rax
	jne	.LBB77_5
	movq	-40(%rbp), %rcx
	movq	-32(%rbp), %rax
	movb	$0, 7(%rbp)
	movq	-48(%rbp), %rdx
	movq	%rdx, -24(%rbp)
	movq	%rcx, -16(%rbp)
	movq	%rax, -8(%rbp)
	movq	-24(%rbp), %rdx
	movq	-16(%rbp), %r8
	movq	-8(%rbp), %r9
.Ltmp52:
	leaq	-49(%rbp), %rcx
	callq	_ZN4core4iter6traits8iterator8Iterator5count28_$u7b$$u7b$closure$u7d$$u7d$17h864aa4364d73b655E
.Ltmp53:
	movq	%rax, -88(%rbp)
	jmp	.LBB77_6
.LBB77_5:
	movq	-48(%rbp), %rax
	addq	$144, %rsp
	popq	%rbp
	retq
.LBB77_6:
	movq	-88(%rbp), %rax
	movb	$1, 7(%rbp)
	movq	%rax, -48(%rbp)
	jmp	.LBB77_1
	.seh_handlerdata
	.long	($cppxdata$_ZN4core4iter6traits8iterator8Iterator4fold17ha9e57a1a17b4ad6aE)@IMGREL
	.section	.text,"xr",one_only,_ZN4core4iter6traits8iterator8Iterator4fold17ha9e57a1a17b4ad6aE
	.seh_endproc
	.def	"?dtor$2@?0?_ZN4core4iter6traits8iterator8Iterator4fold17ha9e57a1a17b4ad6aE@4HA";
	.scl	3;
	.type	32;
	.endef
	.p2align	4, 0x90
"?dtor$2@?0?_ZN4core4iter6traits8iterator8Iterator4fold17ha9e57a1a17b4ad6aE@4HA":
.seh_proc "?dtor$2@?0?_ZN4core4iter6traits8iterator8Iterator4fold17ha9e57a1a17b4ad6aE@4HA"
.LBB77_2:
	movq	%rdx, 16(%rsp)
	pushq	%rbp
	.seh_pushreg %rbp
	subq	$32, %rsp
	.seh_stackalloc 32
	leaq	128(%rdx), %rbp
	.seh_endprologue
	testb	$1, 7(%rbp)
	jne	.LBB77_8
	jmp	.LBB77_7
.LBB77_7:
	addq	$32, %rsp
	popq	%rbp
	retq
.LBB77_8:
	jmp	.LBB77_7
	.seh_handlerdata
	.section	.text,"xr",one_only,_ZN4core4iter6traits8iterator8Iterator4fold17ha9e57a1a17b4ad6aE
	.seh_endproc
	.def	"?dtor$9@?0?_ZN4core4iter6traits8iterator8Iterator4fold17ha9e57a1a17b4ad6aE@4HA";
	.scl	3;
	.type	32;
	.endef
	.p2align	4, 0x90
"?dtor$9@?0?_ZN4core4iter6traits8iterator8Iterator4fold17ha9e57a1a17b4ad6aE@4HA":
.seh_proc "?dtor$9@?0?_ZN4core4iter6traits8iterator8Iterator4fold17ha9e57a1a17b4ad6aE@4HA"
.LBB77_9:
	movq	%rdx, 16(%rsp)
	pushq	%rbp
	.seh_pushreg %rbp
	subq	$32, %rsp
	.seh_stackalloc 32
	leaq	128(%rdx), %rbp
	.seh_endprologue
	addq	$32, %rsp
	popq	%rbp
	retq
.Lfunc_end17:
	.seh_handlerdata
	.section	.text,"xr",one_only,_ZN4core4iter6traits8iterator8Iterator4fold17ha9e57a1a17b4ad6aE
	.seh_endproc
	.section	.xdata,"dr",associative,_ZN4core4iter6traits8iterator8Iterator4fold17ha9e57a1a17b4ad6aE
	.p2align	2, 0x0
$cppxdata$_ZN4core4iter6traits8iterator8Iterator4fold17ha9e57a1a17b4ad6aE:
	.long	429065506
	.long	2
	.long	($stateUnwindMap$_ZN4core4iter6traits8iterator8Iterator4fold17ha9e57a1a17b4ad6aE)@IMGREL
	.long	0
	.long	0
	.long	3
	.long	($ip2state$_ZN4core4iter6traits8iterator8Iterator4fold17ha9e57a1a17b4ad6aE)@IMGREL
	.long	136
	.long	0
	.long	1
$stateUnwindMap$_ZN4core4iter6traits8iterator8Iterator4fold17ha9e57a1a17b4ad6aE:
	.long	-1
	.long	"?dtor$9@?0?_ZN4core4iter6traits8iterator8Iterator4fold17ha9e57a1a17b4ad6aE@4HA"@IMGREL
	.long	0
	.long	"?dtor$2@?0?_ZN4core4iter6traits8iterator8Iterator4fold17ha9e57a1a17b4ad6aE@4HA"@IMGREL
$ip2state$_ZN4core4iter6traits8iterator8Iterator4fold17ha9e57a1a17b4ad6aE:
	.long	.Lfunc_begin17@IMGREL
	.long	-1
	.long	.Ltmp50@IMGREL+1
	.long	1
	.long	.Ltmp53@IMGREL+1
	.long	-1
	.section	.text,"xr",one_only,_ZN4core4iter6traits8iterator8Iterator4fold17ha9e57a1a17b4ad6aE

	.def	_ZN4core4iter6traits8iterator8Iterator5count17h4a35dd783eda3238E;
	.scl	3;
	.type	32;
	.endef
	.section	.text,"xr",one_only,_ZN4core4iter6traits8iterator8Iterator5count17h4a35dd783eda3238E
	.p2align	4, 0x90
_ZN4core4iter6traits8iterator8Iterator5count17h4a35dd783eda3238E:
.seh_proc _ZN4core4iter6traits8iterator8Iterator5count17h4a35dd783eda3238E
	subq	$40, %rsp
	.seh_stackalloc 40
	.seh_endprologue
	xorl	%eax, %eax
	movl	%eax, %edx
	callq	_ZN4core4iter6traits8iterator8Iterator4fold17ha9e57a1a17b4ad6aE
	nop
	addq	$40, %rsp
	retq
	.seh_endproc

	.def	_ZN4core4iter6traits8iterator8Iterator5count28_$u7b$$u7b$closure$u7d$$u7d$17h864aa4364d73b655E;
	.scl	3;
	.type	32;
	.endef
	.section	.text,"xr",one_only,_ZN4core4iter6traits8iterator8Iterator5count28_$u7b$$u7b$closure$u7d$$u7d$17h864aa4364d73b655E
	.p2align	4, 0x90
_ZN4core4iter6traits8iterator8Iterator5count28_$u7b$$u7b$closure$u7d$$u7d$17h864aa4364d73b655E:
.Lfunc_begin18:
.seh_proc _ZN4core4iter6traits8iterator8Iterator5count28_$u7b$$u7b$closure$u7d$$u7d$17h864aa4364d73b655E
	.seh_handler __CxxFrameHandler3, @unwind, @except
	pushq	%rbp
	.seh_pushreg %rbp
	subq	$48, %rsp
	.seh_stackalloc 48
	leaq	48(%rsp), %rbp
	.seh_setframe %rbp, 48
	.seh_endprologue
	movq	$-2, -8(%rbp)
	addq	$1, %rdx
	movq	%rdx, -16(%rbp)
	setb	%al
	testb	$1, %al
	jne	.LBB79_2
	movq	-16(%rbp), %rax
	addq	$48, %rsp
	popq	%rbp
	retq
.LBB79_2:
.Ltmp54:
	leaq	str.0(%rip), %rcx
	leaq	__unnamed_14(%rip), %r8
	movl	$28, %edx
	callq	_ZN4core9panicking5panic17h61d0277f5e1a7407E
.Ltmp55:
	jmp	.LBB79_4
.LBB79_4:
	ud2
	.seh_handlerdata
	.long	($cppxdata$_ZN4core4iter6traits8iterator8Iterator5count28_$u7b$$u7b$closure$u7d$$u7d$17h864aa4364d73b655E)@IMGREL
	.section	.text,"xr",one_only,_ZN4core4iter6traits8iterator8Iterator5count28_$u7b$$u7b$closure$u7d$$u7d$17h864aa4364d73b655E
	.seh_endproc
	.def	"?dtor$3@?0?_ZN4core4iter6traits8iterator8Iterator5count28_$u7b$$u7b$closure$u7d$$u7d$17h864aa4364d73b655E@4HA";
	.scl	3;
	.type	32;
	.endef
	.p2align	4, 0x90
"?dtor$3@?0?_ZN4core4iter6traits8iterator8Iterator5count28_$u7b$$u7b$closure$u7d$$u7d$17h864aa4364d73b655E@4HA":
.seh_proc "?dtor$3@?0?_ZN4core4iter6traits8iterator8Iterator5count28_$u7b$$u7b$closure$u7d$$u7d$17h864aa4364d73b655E@4HA"
.LBB79_3:
	movq	%rdx, 16(%rsp)
	pushq	%rbp
	.seh_pushreg %rbp
	subq	$32, %rsp
	.seh_stackalloc 32
	leaq	48(%rdx), %rbp
	.seh_endprologue
	addq	$32, %rsp
	popq	%rbp
	retq
.Lfunc_end18:
	.seh_handlerdata
	.section	.text,"xr",one_only,_ZN4core4iter6traits8iterator8Iterator5count28_$u7b$$u7b$closure$u7d$$u7d$17h864aa4364d73b655E
	.seh_endproc
	.section	.xdata,"dr",associative,_ZN4core4iter6traits8iterator8Iterator5count28_$u7b$$u7b$closure$u7d$$u7d$17h864aa4364d73b655E
	.p2align	2, 0x0
$cppxdata$_ZN4core4iter6traits8iterator8Iterator5count28_$u7b$$u7b$closure$u7d$$u7d$17h864aa4364d73b655E:
	.long	429065506
	.long	1
	.long	($stateUnwindMap$_ZN4core4iter6traits8iterator8Iterator5count28_$u7b$$u7b$closure$u7d$$u7d$17h864aa4364d73b655E)@IMGREL
	.long	0
	.long	0
	.long	3
	.long	($ip2state$_ZN4core4iter6traits8iterator8Iterator5count28_$u7b$$u7b$closure$u7d$$u7d$17h864aa4364d73b655E)@IMGREL
	.long	40
	.long	0
	.long	1
$stateUnwindMap$_ZN4core4iter6traits8iterator8Iterator5count28_$u7b$$u7b$closure$u7d$$u7d$17h864aa4364d73b655E:
	.long	-1
	.long	"?dtor$3@?0?_ZN4core4iter6traits8iterator8Iterator5count28_$u7b$$u7b$closure$u7d$$u7d$17h864aa4364d73b655E@4HA"@IMGREL
$ip2state$_ZN4core4iter6traits8iterator8Iterator5count28_$u7b$$u7b$closure$u7d$$u7d$17h864aa4364d73b655E:
	.long	.Lfunc_begin18@IMGREL
	.long	-1
	.long	.Ltmp54@IMGREL+1
	.long	0
	.long	.Ltmp55@IMGREL+1
	.long	-1
	.section	.text,"xr",one_only,_ZN4core4iter6traits8iterator8Iterator5count28_$u7b$$u7b$closure$u7d$$u7d$17h864aa4364d73b655E

	.def	_ZN4core4iter6traits8iterator8Iterator6filter17h197cbba59f89f64fE;
	.scl	3;
	.type	32;
	.endef
	.section	.text,"xr",one_only,_ZN4core4iter6traits8iterator8Iterator6filter17h197cbba59f89f64fE
	.p2align	4, 0x90
_ZN4core4iter6traits8iterator8Iterator6filter17h197cbba59f89f64fE:
	movq	%rcx, %rax
	movq	%rdx, 8(%rcx)
	movq	%r8, 16(%rcx)
	movq	%r9, (%rcx)
	retq

	.def	_ZN4core4iter6traits8iterator8Iterator7collect17hfe580ed0615ecc7fE;
	.scl	3;
	.type	32;
	.endef
	.section	.text,"xr",one_only,_ZN4core4iter6traits8iterator8Iterator7collect17hfe580ed0615ecc7fE
	.p2align	4, 0x90
_ZN4core4iter6traits8iterator8Iterator7collect17hfe580ed0615ecc7fE:
.seh_proc _ZN4core4iter6traits8iterator8Iterator7collect17hfe580ed0615ecc7fE
	subq	$40, %rsp
	.seh_stackalloc 40
	.seh_endprologue
	movq	%rcx, %rax
	movq	%rax, 32(%rsp)
	callq	_ZN95_$LT$alloc..vec..Vec$LT$T$GT$$u20$as$u20$core..iter..traits..collect..FromIterator$LT$T$GT$$GT$9from_iter17h5d64c6eac1f9144cE
	movq	32(%rsp), %rax
	addq	$40, %rsp
	retq
	.seh_endproc

	.def	_ZN4core4iter6traits8iterator8Iterator8flat_map17h23fbe88860ffbc72E;
	.scl	3;
	.type	32;
	.endef
	.section	.text,"xr",one_only,_ZN4core4iter6traits8iterator8Iterator8flat_map17h23fbe88860ffbc72E
	.p2align	4, 0x90
_ZN4core4iter6traits8iterator8Iterator8flat_map17h23fbe88860ffbc72E:
.seh_proc _ZN4core4iter6traits8iterator8Iterator8flat_map17h23fbe88860ffbc72E
	subq	$408, %rsp
	.seh_stackalloc 408
	.seh_endprologue
	movq	%rcx, 40(%rsp)
	movq	%rcx, 48(%rsp)
	leaq	160(%rsp), %rcx
	callq	_ZN4core4iter6traits8iterator8Iterator3map17ha37f4f3fe7cc4886E
	leaq	336(%rsp), %rcx
	leaq	160(%rsp), %rdx
	movl	$72, %r8d
	callq	memcpy
	leaq	232(%rsp), %rcx
	leaq	336(%rsp), %rdx
	movl	$72, %r8d
	callq	memcpy
	movq	$0, 304(%rsp)
	movq	$0, 320(%rsp)
	leaq	56(%rsp), %rcx
	addq	$32, %rcx
	leaq	232(%rsp), %rdx
	movl	$72, %r8d
	callq	memcpy
	movq	40(%rsp), %rcx
	movq	304(%rsp), %rdx
	movq	312(%rsp), %rax
	movq	%rdx, 56(%rsp)
	movq	%rax, 64(%rsp)
	movq	320(%rsp), %rdx
	movq	328(%rsp), %rax
	movq	%rdx, 72(%rsp)
	movq	%rax, 80(%rsp)
	leaq	56(%rsp), %rdx
	movl	$104, %r8d
	callq	memcpy
	movq	48(%rsp), %rax
	addq	$408, %rsp
	retq
	.seh_endproc

	.def	_ZN4core4iter6traits8iterator8Iterator8try_fold17h5447e38b0534f1f5E;
	.scl	3;
	.type	32;
	.endef
	.section	.text,"xr",one_only,_ZN4core4iter6traits8iterator8Iterator8try_fold17h5447e38b0534f1f5E
	.p2align	4, 0x90
_ZN4core4iter6traits8iterator8Iterator8try_fold17h5447e38b0534f1f5E:
.Lfunc_begin19:
.seh_proc _ZN4core4iter6traits8iterator8Iterator8try_fold17h5447e38b0534f1f5E
	.seh_handler __CxxFrameHandler3, @unwind, @except
	pushq	%rbp
	.seh_pushreg %rbp
	subq	$208, %rsp
	.seh_stackalloc 208
	leaq	128(%rsp), %rbp
	.seh_setframe %rbp, 128
	.seh_endprologue
	movq	$-2, 72(%rbp)
	movq	%rdx, -8(%rbp)
	movq	%rcx, (%rbp)
	movb	$1, 71(%rbp)
.LBB83_1:
.Ltmp56:
	movq	(%rbp), %rcx
	callq	_ZN4core4iter5range101_$LT$impl$u20$core..iter..traits..iterator..Iterator$u20$for$u20$core..ops..range..Range$LT$A$GT$$GT$4next17hede07e26537546f5E
.Ltmp57:
	movq	%rdx, -24(%rbp)
	movq	%rax, -16(%rbp)
	jmp	.LBB83_3
.LBB83_3:
	movq	-24(%rbp), %rax
	movq	-16(%rbp), %rcx
	movq	%rcx, 24(%rbp)
	movq	%rax, 32(%rbp)
	cmpq	$1, 24(%rbp)
	jne	.LBB83_5
	movq	-8(%rbp), %rcx
	movq	32(%rbp), %rax
	movb	$0, 71(%rbp)
	movq	%rax, 56(%rbp)
	movq	56(%rbp), %rdx
.Ltmp60:
	callq	_ZN4core4iter6traits8iterator8Iterator4find5check28_$u7b$$u7b$closure$u7d$$u7d$17h4f703b80ce1f8cf2E
.Ltmp61:
	movq	%rdx, -40(%rbp)
	movq	%rax, -32(%rbp)
	jmp	.LBB83_6
.LBB83_5:
	movb	$0, 71(%rbp)
.Ltmp58:
	callq	_ZN95_$LT$core..ops..control_flow..ControlFlow$LT$B$C$C$GT$$u20$as$u20$core..ops..try_trait..Try$GT$11from_output17h4d3689c3f9c6e4c4E
.Ltmp59:
	movq	%rdx, -56(%rbp)
	movq	%rax, -48(%rbp)
	jmp	.LBB83_12
.LBB83_6:
.Ltmp62:
	movq	-40(%rbp), %rdx
	movq	-32(%rbp), %rcx
	callq	_ZN95_$LT$core..ops..control_flow..ControlFlow$LT$B$C$C$GT$$u20$as$u20$core..ops..try_trait..Try$GT$6branch17h6aed4f07a1b680d4E
.Ltmp63:
	movq	%rdx, -72(%rbp)
	movq	%rax, -64(%rbp)
	jmp	.LBB83_7
.LBB83_7:
	movq	-72(%rbp), %rax
	movq	-64(%rbp), %rcx
	movq	%rcx, 40(%rbp)
	movq	%rax, 48(%rbp)
	cmpq	$0, 40(%rbp)
	jne	.LBB83_9
	movb	$1, 71(%rbp)
	jmp	.LBB83_1
.LBB83_9:
	movq	48(%rbp), %rcx
.Ltmp64:
	callq	_ZN104_$LT$core..ops..control_flow..ControlFlow$LT$B$C$C$GT$$u20$as$u20$core..ops..try_trait..FromResidual$GT$13from_residual17h9eedc368834a345aE
.Ltmp65:
	movq	%rdx, -88(%rbp)
	movq	%rax, -80(%rbp)
	jmp	.LBB83_10
.LBB83_10:
	movq	-88(%rbp), %rax
	movq	-80(%rbp), %rcx
	movq	%rcx, 8(%rbp)
	movq	%rax, 16(%rbp)
.LBB83_11:
	movq	8(%rbp), %rax
	movq	16(%rbp), %rdx
	addq	$208, %rsp
	popq	%rbp
	retq
.LBB83_12:
	movq	-56(%rbp), %rax
	movq	-48(%rbp), %rcx
	movq	%rcx, 8(%rbp)
	movq	%rax, 16(%rbp)
	jmp	.LBB83_11
	.seh_handlerdata
	.long	($cppxdata$_ZN4core4iter6traits8iterator8Iterator8try_fold17h5447e38b0534f1f5E)@IMGREL
	.section	.text,"xr",one_only,_ZN4core4iter6traits8iterator8Iterator8try_fold17h5447e38b0534f1f5E
	.seh_endproc
	.def	"?dtor$2@?0?_ZN4core4iter6traits8iterator8Iterator8try_fold17h5447e38b0534f1f5E@4HA";
	.scl	3;
	.type	32;
	.endef
	.p2align	4, 0x90
"?dtor$2@?0?_ZN4core4iter6traits8iterator8Iterator8try_fold17h5447e38b0534f1f5E@4HA":
.seh_proc "?dtor$2@?0?_ZN4core4iter6traits8iterator8Iterator8try_fold17h5447e38b0534f1f5E@4HA"
.LBB83_2:
	movq	%rdx, 16(%rsp)
	pushq	%rbp
	.seh_pushreg %rbp
	subq	$32, %rsp
	.seh_stackalloc 32
	leaq	128(%rdx), %rbp
	.seh_endprologue
	testb	$1, 71(%rbp)
	jne	.LBB83_14
	jmp	.LBB83_13
.LBB83_13:
	addq	$32, %rsp
	popq	%rbp
	retq
.LBB83_14:
	jmp	.LBB83_13
.Lfunc_end19:
	.seh_handlerdata
	.section	.text,"xr",one_only,_ZN4core4iter6traits8iterator8Iterator8try_fold17h5447e38b0534f1f5E
	.seh_endproc
	.section	.xdata,"dr",associative,_ZN4core4iter6traits8iterator8Iterator8try_fold17h5447e38b0534f1f5E
	.p2align	2, 0x0
$cppxdata$_ZN4core4iter6traits8iterator8Iterator8try_fold17h5447e38b0534f1f5E:
	.long	429065506
	.long	1
	.long	($stateUnwindMap$_ZN4core4iter6traits8iterator8Iterator8try_fold17h5447e38b0534f1f5E)@IMGREL
	.long	0
	.long	0
	.long	3
	.long	($ip2state$_ZN4core4iter6traits8iterator8Iterator8try_fold17h5447e38b0534f1f5E)@IMGREL
	.long	200
	.long	0
	.long	1
$stateUnwindMap$_ZN4core4iter6traits8iterator8Iterator8try_fold17h5447e38b0534f1f5E:
	.long	-1
	.long	"?dtor$2@?0?_ZN4core4iter6traits8iterator8Iterator8try_fold17h5447e38b0534f1f5E@4HA"@IMGREL
$ip2state$_ZN4core4iter6traits8iterator8Iterator8try_fold17h5447e38b0534f1f5E:
	.long	.Lfunc_begin19@IMGREL
	.long	-1
	.long	.Ltmp56@IMGREL+1
	.long	0
	.long	.Ltmp65@IMGREL+1
	.long	-1
	.section	.text,"xr",one_only,_ZN4core4iter6traits8iterator8Iterator8try_fold17h5447e38b0534f1f5E

	.def	_ZN4core4iter6traits8iterator8Iterator8try_fold17hb151dec2b4ec66ccE;
	.scl	3;
	.type	32;
	.endef
	.section	.text,"xr",one_only,_ZN4core4iter6traits8iterator8Iterator8try_fold17hb151dec2b4ec66ccE
	.p2align	4, 0x90
_ZN4core4iter6traits8iterator8Iterator8try_fold17hb151dec2b4ec66ccE:
.Lfunc_begin20:
.seh_proc _ZN4core4iter6traits8iterator8Iterator8try_fold17hb151dec2b4ec66ccE
	.seh_handler __CxxFrameHandler3, @unwind, @except
	pushq	%rbp
	.seh_pushreg %rbp
	subq	$208, %rsp
	.seh_stackalloc 208
	leaq	128(%rsp), %rbp
	.seh_setframe %rbp, 128
	.seh_endprologue
	movq	$-2, 72(%rbp)
	movq	%rdx, -8(%rbp)
	movq	%rcx, (%rbp)
	movb	$1, 71(%rbp)
.LBB84_1:
.Ltmp66:
	movq	(%rbp), %rcx
	callq	_ZN4core4iter5range101_$LT$impl$u20$core..iter..traits..iterator..Iterator$u20$for$u20$core..ops..range..Range$LT$A$GT$$GT$4next17hede07e26537546f5E
.Ltmp67:
	movq	%rdx, -24(%rbp)
	movq	%rax, -16(%rbp)
	jmp	.LBB84_3
.LBB84_3:
	movq	-24(%rbp), %rax
	movq	-16(%rbp), %rcx
	movq	%rcx, 24(%rbp)
	movq	%rax, 32(%rbp)
	cmpq	$1, 24(%rbp)
	jne	.LBB84_5
	movq	-8(%rbp), %rcx
	movq	32(%rbp), %rax
	movb	$0, 71(%rbp)
	movq	%rax, 56(%rbp)
	movq	56(%rbp), %rdx
.Ltmp70:
	callq	_ZN4core4iter6traits8iterator8Iterator4find5check28_$u7b$$u7b$closure$u7d$$u7d$17h5854a36679dafcfaE
.Ltmp71:
	movq	%rdx, -40(%rbp)
	movq	%rax, -32(%rbp)
	jmp	.LBB84_6
.LBB84_5:
	movb	$0, 71(%rbp)
.Ltmp68:
	callq	_ZN95_$LT$core..ops..control_flow..ControlFlow$LT$B$C$C$GT$$u20$as$u20$core..ops..try_trait..Try$GT$11from_output17h4d3689c3f9c6e4c4E
.Ltmp69:
	movq	%rdx, -56(%rbp)
	movq	%rax, -48(%rbp)
	jmp	.LBB84_12
.LBB84_6:
.Ltmp72:
	movq	-40(%rbp), %rdx
	movq	-32(%rbp), %rcx
	callq	_ZN95_$LT$core..ops..control_flow..ControlFlow$LT$B$C$C$GT$$u20$as$u20$core..ops..try_trait..Try$GT$6branch17h6aed4f07a1b680d4E
.Ltmp73:
	movq	%rdx, -72(%rbp)
	movq	%rax, -64(%rbp)
	jmp	.LBB84_7
.LBB84_7:
	movq	-72(%rbp), %rax
	movq	-64(%rbp), %rcx
	movq	%rcx, 40(%rbp)
	movq	%rax, 48(%rbp)
	cmpq	$0, 40(%rbp)
	jne	.LBB84_9
	movb	$1, 71(%rbp)
	jmp	.LBB84_1
.LBB84_9:
	movq	48(%rbp), %rcx
.Ltmp74:
	callq	_ZN104_$LT$core..ops..control_flow..ControlFlow$LT$B$C$C$GT$$u20$as$u20$core..ops..try_trait..FromResidual$GT$13from_residual17h9eedc368834a345aE
.Ltmp75:
	movq	%rdx, -88(%rbp)
	movq	%rax, -80(%rbp)
	jmp	.LBB84_10
.LBB84_10:
	movq	-88(%rbp), %rax
	movq	-80(%rbp), %rcx
	movq	%rcx, 8(%rbp)
	movq	%rax, 16(%rbp)
.LBB84_11:
	movq	8(%rbp), %rax
	movq	16(%rbp), %rdx
	addq	$208, %rsp
	popq	%rbp
	retq
.LBB84_12:
	movq	-56(%rbp), %rax
	movq	-48(%rbp), %rcx
	movq	%rcx, 8(%rbp)
	movq	%rax, 16(%rbp)
	jmp	.LBB84_11
	.seh_handlerdata
	.long	($cppxdata$_ZN4core4iter6traits8iterator8Iterator8try_fold17hb151dec2b4ec66ccE)@IMGREL
	.section	.text,"xr",one_only,_ZN4core4iter6traits8iterator8Iterator8try_fold17hb151dec2b4ec66ccE
	.seh_endproc
	.def	"?dtor$2@?0?_ZN4core4iter6traits8iterator8Iterator8try_fold17hb151dec2b4ec66ccE@4HA";
	.scl	3;
	.type	32;
	.endef
	.p2align	4, 0x90
"?dtor$2@?0?_ZN4core4iter6traits8iterator8Iterator8try_fold17hb151dec2b4ec66ccE@4HA":
.seh_proc "?dtor$2@?0?_ZN4core4iter6traits8iterator8Iterator8try_fold17hb151dec2b4ec66ccE@4HA"
.LBB84_2:
	movq	%rdx, 16(%rsp)
	pushq	%rbp
	.seh_pushreg %rbp
	subq	$32, %rsp
	.seh_stackalloc 32
	leaq	128(%rdx), %rbp
	.seh_endprologue
	testb	$1, 71(%rbp)
	jne	.LBB84_14
	jmp	.LBB84_13
.LBB84_13:
	addq	$32, %rsp
	popq	%rbp
	retq
.LBB84_14:
	jmp	.LBB84_13
.Lfunc_end20:
	.seh_handlerdata
	.section	.text,"xr",one_only,_ZN4core4iter6traits8iterator8Iterator8try_fold17hb151dec2b4ec66ccE
	.seh_endproc
	.section	.xdata,"dr",associative,_ZN4core4iter6traits8iterator8Iterator8try_fold17hb151dec2b4ec66ccE
	.p2align	2, 0x0
$cppxdata$_ZN4core4iter6traits8iterator8Iterator8try_fold17hb151dec2b4ec66ccE:
	.long	429065506
	.long	1
	.long	($stateUnwindMap$_ZN4core4iter6traits8iterator8Iterator8try_fold17hb151dec2b4ec66ccE)@IMGREL
	.long	0
	.long	0
	.long	3
	.long	($ip2state$_ZN4core4iter6traits8iterator8Iterator8try_fold17hb151dec2b4ec66ccE)@IMGREL
	.long	200
	.long	0
	.long	1
$stateUnwindMap$_ZN4core4iter6traits8iterator8Iterator8try_fold17hb151dec2b4ec66ccE:
	.long	-1
	.long	"?dtor$2@?0?_ZN4core4iter6traits8iterator8Iterator8try_fold17hb151dec2b4ec66ccE@4HA"@IMGREL
$ip2state$_ZN4core4iter6traits8iterator8Iterator8try_fold17hb151dec2b4ec66ccE:
	.long	.Lfunc_begin20@IMGREL
	.long	-1
	.long	.Ltmp66@IMGREL+1
	.long	0
	.long	.Ltmp75@IMGREL+1
	.long	-1
	.section	.text,"xr",one_only,_ZN4core4iter6traits8iterator8Iterator8try_fold17hb151dec2b4ec66ccE

	.def	_ZN4core4iter8adapters3map8map_fold28_$u7b$$u7b$closure$u7d$$u7d$17h361281e383366611E;
	.scl	3;
	.type	32;
	.endef
	.section	.text,"xr",one_only,_ZN4core4iter8adapters3map8map_fold28_$u7b$$u7b$closure$u7d$$u7d$17h361281e383366611E
	.p2align	4, 0x90
_ZN4core4iter8adapters3map8map_fold28_$u7b$$u7b$closure$u7d$$u7d$17h361281e383366611E:
.Lfunc_begin21:
.seh_proc _ZN4core4iter8adapters3map8map_fold28_$u7b$$u7b$closure$u7d$$u7d$17h361281e383366611E
	.seh_handler __CxxFrameHandler3, @unwind, @except
	pushq	%rbp
	.seh_pushreg %rbp
	subq	$112, %rsp
	.seh_stackalloc 112
	leaq	112(%rsp), %rbp
	.seh_setframe %rbp, 112
	.seh_endprologue
	movq	$-2, -8(%rbp)
	movq	%rdx, -64(%rbp)
	movq	%rcx, %rax
	addq	$8, %rax
	movq	%rax, -56(%rbp)
	movb	$1, -9(%rbp)
	movq	%r8, -24(%rbp)
	movq	-24(%rbp), %rdx
.Ltmp76:
	callq	_ZN108_$LT$core..iter..adapters..filter..Filter$LT$I$C$P$GT$$u20$as$u20$core..iter..traits..iterator..Iterator$GT$5count8to_usize28_$u7b$$u7b$closure$u7d$$u7d$17h71e73de4e63eaebeE
.Ltmp77:
	movq	%rax, -48(%rbp)
	jmp	.LBB85_2
.LBB85_2:
	movq	-56(%rbp), %rcx
	movq	-48(%rbp), %rax
	movq	-64(%rbp), %rdx
	movb	$0, -9(%rbp)
	movq	%rdx, -40(%rbp)
	movq	%rax, -32(%rbp)
	movq	-40(%rbp), %rdx
	movq	-32(%rbp), %r8
.Ltmp78:
	callq	_ZN56_$LT$usize$u20$as$u20$core..iter..traits..accum..Sum$GT$3sum28_$u7b$$u7b$closure$u7d$$u7d$17h36ae761eab448b32E
.Ltmp79:
	movq	%rax, -72(%rbp)
	jmp	.LBB85_3
.LBB85_3:
	movq	-72(%rbp), %rax
	addq	$112, %rsp
	popq	%rbp
	retq
	.seh_handlerdata
	.long	($cppxdata$_ZN4core4iter8adapters3map8map_fold28_$u7b$$u7b$closure$u7d$$u7d$17h361281e383366611E)@IMGREL
	.section	.text,"xr",one_only,_ZN4core4iter8adapters3map8map_fold28_$u7b$$u7b$closure$u7d$$u7d$17h361281e383366611E
	.seh_endproc
	.def	"?dtor$1@?0?_ZN4core4iter8adapters3map8map_fold28_$u7b$$u7b$closure$u7d$$u7d$17h361281e383366611E@4HA";
	.scl	3;
	.type	32;
	.endef
	.p2align	4, 0x90
"?dtor$1@?0?_ZN4core4iter8adapters3map8map_fold28_$u7b$$u7b$closure$u7d$$u7d$17h361281e383366611E@4HA":
.seh_proc "?dtor$1@?0?_ZN4core4iter8adapters3map8map_fold28_$u7b$$u7b$closure$u7d$$u7d$17h361281e383366611E@4HA"
.LBB85_1:
	movq	%rdx, 16(%rsp)
	pushq	%rbp
	.seh_pushreg %rbp
	subq	$32, %rsp
	.seh_stackalloc 32
	leaq	112(%rdx), %rbp
	.seh_endprologue
	testb	$1, -9(%rbp)
	jne	.LBB85_5
	jmp	.LBB85_4
.LBB85_4:
	addq	$32, %rsp
	popq	%rbp
	retq
.LBB85_5:
	jmp	.LBB85_4
.Lfunc_end21:
	.seh_handlerdata
	.section	.text,"xr",one_only,_ZN4core4iter8adapters3map8map_fold28_$u7b$$u7b$closure$u7d$$u7d$17h361281e383366611E
	.seh_endproc
	.section	.xdata,"dr",associative,_ZN4core4iter8adapters3map8map_fold28_$u7b$$u7b$closure$u7d$$u7d$17h361281e383366611E
	.p2align	2, 0x0
$cppxdata$_ZN4core4iter8adapters3map8map_fold28_$u7b$$u7b$closure$u7d$$u7d$17h361281e383366611E:
	.long	429065506
	.long	1
	.long	($stateUnwindMap$_ZN4core4iter8adapters3map8map_fold28_$u7b$$u7b$closure$u7d$$u7d$17h361281e383366611E)@IMGREL
	.long	0
	.long	0
	.long	3
	.long	($ip2state$_ZN4core4iter8adapters3map8map_fold28_$u7b$$u7b$closure$u7d$$u7d$17h361281e383366611E)@IMGREL
	.long	104
	.long	0
	.long	1
$stateUnwindMap$_ZN4core4iter8adapters3map8map_fold28_$u7b$$u7b$closure$u7d$$u7d$17h361281e383366611E:
	.long	-1
	.long	"?dtor$1@?0?_ZN4core4iter8adapters3map8map_fold28_$u7b$$u7b$closure$u7d$$u7d$17h361281e383366611E@4HA"@IMGREL
$ip2state$_ZN4core4iter8adapters3map8map_fold28_$u7b$$u7b$closure$u7d$$u7d$17h361281e383366611E:
	.long	.Lfunc_begin21@IMGREL
	.long	-1
	.long	.Ltmp76@IMGREL+1
	.long	0
	.long	.Ltmp79@IMGREL+1
	.long	-1
	.section	.text,"xr",one_only,_ZN4core4iter8adapters3map8map_fold28_$u7b$$u7b$closure$u7d$$u7d$17h361281e383366611E

	.def	_ZN4core4iter8adapters7flatten17and_then_or_clear17h702f5fa6a3494592E;
	.scl	3;
	.type	32;
	.endef
	.section	.text,"xr",one_only,_ZN4core4iter8adapters7flatten17and_then_or_clear17h702f5fa6a3494592E
	.p2align	4, 0x90
_ZN4core4iter8adapters7flatten17and_then_or_clear17h702f5fa6a3494592E:
.Lfunc_begin22:
.seh_proc _ZN4core4iter8adapters7flatten17and_then_or_clear17h702f5fa6a3494592E
	.seh_handler __CxxFrameHandler3, @unwind, @except
	pushq	%rbp
	.seh_pushreg %rbp
	subq	$112, %rsp
	.seh_stackalloc 112
	leaq	112(%rsp), %rbp
	.seh_setframe %rbp, 112
	.seh_endprologue
	movq	$-2, -8(%rbp)
	movq	%rcx, -64(%rbp)
	movq	(%rcx), %rax
	cmpq	$0, %rax
	sete	%al
	testb	$1, %al
	jne	.LBB86_1
	jmp	.LBB86_2
.LBB86_1:
	movq	$0, -32(%rbp)
	jmp	.LBB86_3
.LBB86_2:
	movq	-64(%rbp), %rax
	movq	%rax, -32(%rbp)
.LBB86_3:
	movq	-32(%rbp), %rax
	cmpq	$0, %rax
	sete	%al
	testb	$1, %al
	jne	.LBB86_4
	jmp	.LBB86_5
.LBB86_4:
	movq	$0, -40(%rbp)
	jmp	.LBB86_6
.LBB86_5:
	movq	-32(%rbp), %rax
	movq	%rax, -40(%rbp)
.LBB86_6:
	movq	-40(%rbp), %rdx
	xorl	%eax, %eax
	movl	$1, %ecx
	cmpq	$0, %rdx
	cmoveq	%rcx, %rax
	cmpq	$0, %rax
	jne	.LBB86_8
	movq	-40(%rbp), %rax
	movq	%rax, -48(%rbp)
	movq	-48(%rbp), %rcx
.Ltmp80:
	callq	_ZN4core3ops8function6FnOnce9call_once17h1648ab9165bd9a3eE
.Ltmp81:
	movb	%dl, -66(%rbp)
	movb	%al, -65(%rbp)
	jmp	.LBB86_10
.LBB86_8:
	movb	$0, -52(%rbp)
	jmp	.LBB86_14
.LBB86_10:
	movb	-66(%rbp), %al
	movb	-65(%rbp), %cl
	movb	%cl, -50(%rbp)
	movb	%al, -49(%rbp)
	movb	-50(%rbp), %al
	xorb	$-1, %al
	testb	$1, %al
	jne	.LBB86_12
	jmp	.LBB86_13
.LBB86_12:
	movq	-64(%rbp), %rax
	movq	$0, -24(%rbp)
	movq	-24(%rbp), %rdx
	movq	-16(%rbp), %rcx
	movq	%rdx, (%rax)
	movq	%rcx, 8(%rax)
.LBB86_13:
	movb	-50(%rbp), %cl
	movb	-49(%rbp), %al
	andb	$1, %cl
	movb	%cl, -52(%rbp)
	movb	%al, -51(%rbp)
.LBB86_14:
	movb	-52(%rbp), %al
	movb	-51(%rbp), %dl
	addq	$112, %rsp
	popq	%rbp
	retq
	.seh_handlerdata
	.long	($cppxdata$_ZN4core4iter8adapters7flatten17and_then_or_clear17h702f5fa6a3494592E)@IMGREL
	.section	.text,"xr",one_only,_ZN4core4iter8adapters7flatten17and_then_or_clear17h702f5fa6a3494592E
	.seh_endproc
	.def	"?dtor$9@?0?_ZN4core4iter8adapters7flatten17and_then_or_clear17h702f5fa6a3494592E@4HA";
	.scl	3;
	.type	32;
	.endef
	.p2align	4, 0x90
"?dtor$9@?0?_ZN4core4iter8adapters7flatten17and_then_or_clear17h702f5fa6a3494592E@4HA":
.seh_proc "?dtor$9@?0?_ZN4core4iter8adapters7flatten17and_then_or_clear17h702f5fa6a3494592E@4HA"
.LBB86_9:
	movq	%rdx, 16(%rsp)
	pushq	%rbp
	.seh_pushreg %rbp
	subq	$32, %rsp
	.seh_stackalloc 32
	leaq	112(%rdx), %rbp
	.seh_endprologue
	addq	$32, %rsp
	popq	%rbp
	retq
	.seh_handlerdata
	.section	.text,"xr",one_only,_ZN4core4iter8adapters7flatten17and_then_or_clear17h702f5fa6a3494592E
	.seh_endproc
	.def	"?dtor$15@?0?_ZN4core4iter8adapters7flatten17and_then_or_clear17h702f5fa6a3494592E@4HA";
	.scl	3;
	.type	32;
	.endef
	.p2align	4, 0x90
"?dtor$15@?0?_ZN4core4iter8adapters7flatten17and_then_or_clear17h702f5fa6a3494592E@4HA":
.seh_proc "?dtor$15@?0?_ZN4core4iter8adapters7flatten17and_then_or_clear17h702f5fa6a3494592E@4HA"
.LBB86_15:
	movq	%rdx, 16(%rsp)
	pushq	%rbp
	.seh_pushreg %rbp
	subq	$32, %rsp
	.seh_stackalloc 32
	leaq	112(%rdx), %rbp
	.seh_endprologue
	addq	$32, %rsp
	popq	%rbp
	retq
.Lfunc_end22:
	.seh_handlerdata
	.section	.text,"xr",one_only,_ZN4core4iter8adapters7flatten17and_then_or_clear17h702f5fa6a3494592E
	.seh_endproc
	.section	.xdata,"dr",associative,_ZN4core4iter8adapters7flatten17and_then_or_clear17h702f5fa6a3494592E
	.p2align	2, 0x0
$cppxdata$_ZN4core4iter8adapters7flatten17and_then_or_clear17h702f5fa6a3494592E:
	.long	429065506
	.long	2
	.long	($stateUnwindMap$_ZN4core4iter8adapters7flatten17and_then_or_clear17h702f5fa6a3494592E)@IMGREL
	.long	0
	.long	0
	.long	3
	.long	($ip2state$_ZN4core4iter8adapters7flatten17and_then_or_clear17h702f5fa6a3494592E)@IMGREL
	.long	104
	.long	0
	.long	1
$stateUnwindMap$_ZN4core4iter8adapters7flatten17and_then_or_clear17h702f5fa6a3494592E:
	.long	-1
	.long	"?dtor$15@?0?_ZN4core4iter8adapters7flatten17and_then_or_clear17h702f5fa6a3494592E@4HA"@IMGREL
	.long	0
	.long	"?dtor$9@?0?_ZN4core4iter8adapters7flatten17and_then_or_clear17h702f5fa6a3494592E@4HA"@IMGREL
$ip2state$_ZN4core4iter8adapters7flatten17and_then_or_clear17h702f5fa6a3494592E:
	.long	.Lfunc_begin22@IMGREL
	.long	-1
	.long	.Ltmp80@IMGREL+1
	.long	1
	.long	.Ltmp81@IMGREL+1
	.long	-1
	.section	.text,"xr",one_only,_ZN4core4iter8adapters7flatten17and_then_or_clear17h702f5fa6a3494592E

	.def	_ZN4core5alloc6layout6Layout5array5inner17h253bd2446d2153a2E;
	.scl	3;
	.type	32;
	.endef
	.section	.text,"xr",one_only,_ZN4core5alloc6layout6Layout5array5inner17h253bd2446d2153a2E
	.p2align	4, 0x90
_ZN4core5alloc6layout6Layout5array5inner17h253bd2446d2153a2E:
.seh_proc _ZN4core5alloc6layout6Layout5array5inner17h253bd2446d2153a2E
	subq	$120, %rsp
	.seh_stackalloc 120
	.seh_endprologue
	movq	%r8, 48(%rsp)
	movq	%rdx, 56(%rsp)
	movq	%rcx, 64(%rsp)
	cmpq	$0, %rcx
	jne	.LBB87_2
.LBB87_1:
	movq	56(%rsp), %rax
	movq	48(%rsp), %rdx
	movq	64(%rsp), %rcx
	imulq	%rdx, %rcx
	movq	%rax, 112(%rsp)
	movq	112(%rsp), %rax
	movq	%rcx, 96(%rsp)
	movq	%rax, 88(%rsp)
	movq	88(%rsp), %rcx
	movq	96(%rsp), %rax
	movq	%rcx, 72(%rsp)
	movq	%rax, 80(%rsp)
	jmp	.LBB87_7
.LBB87_2:
	movq	64(%rsp), %rax
	movq	56(%rsp), %rcx
	movq	%rcx, 104(%rsp)
	movq	104(%rsp), %rdx
	subq	$1, %rdx
	movabsq	$9223372036854775807, %rcx
	subq	%rdx, %rcx
	movq	%rcx, 40(%rsp)
	cmpq	$0, %rax
	sete	%al
	testb	$1, %al
	jne	.LBB87_4
	movq	64(%rsp), %rcx
	movq	40(%rsp), %rax
	xorl	%edx, %edx
	divq	%rcx
	movq	%rax, %rcx
	movq	48(%rsp), %rax
	cmpq	%rcx, %rax
	ja	.LBB87_6
	jmp	.LBB87_5
.LBB87_4:
	leaq	str.1(%rip), %rcx
	leaq	__unnamed_15(%rip), %r8
	movl	$25, %edx
	callq	_ZN4core9panicking5panic17h61d0277f5e1a7407E
.LBB87_5:
	jmp	.LBB87_1
.LBB87_6:
	movq	$0, 72(%rsp)
.LBB87_7:
	movq	72(%rsp), %rax
	movq	80(%rsp), %rdx
	addq	$120, %rsp
	retq
	.seh_endproc

	.def	_ZN4core5slice29_$LT$impl$u20$$u5b$T$u5d$$GT$9ends_with17h30a31ec8337fe734E;
	.scl	3;
	.type	32;
	.endef
	.section	.text,"xr",one_only,_ZN4core5slice29_$LT$impl$u20$$u5b$T$u5d$$GT$9ends_with17h30a31ec8337fe734E
	.p2align	4, 0x90
_ZN4core5slice29_$LT$impl$u20$$u5b$T$u5d$$GT$9ends_with17h30a31ec8337fe734E:
.seh_proc _ZN4core5slice29_$LT$impl$u20$$u5b$T$u5d$$GT$9ends_with17h30a31ec8337fe734E
	subq	$152, %rsp
	.seh_stackalloc 152
	.seh_endprologue
	movq	%rdx, 40(%rsp)
	movq	%rcx, 48(%rsp)
	movq	%r8, 64(%rsp)
	movq	%r9, 72(%rsp)
	movq	72(%rsp), %rax
	movq	%rax, 56(%rsp)
	cmpq	%rax, %rdx
	jae	.LBB88_2
	movb	$0, 87(%rsp)
	jmp	.LBB88_3
.LBB88_2:
	movq	40(%rsp), %rcx
	movq	56(%rsp), %rdx
	movq	%rcx, %rax
	subq	%rdx, %rax
	movq	%rax, 32(%rsp)
	cmpq	%rcx, %rax
	ja	.LBB88_5
	jmp	.LBB88_4
.LBB88_3:
	movb	87(%rsp), %al
	andb	$1, %al
	movzbl	%al, %eax
	addq	$152, %rsp
	retq
.LBB88_4:
	movq	32(%rsp), %rdx
	movq	48(%rsp), %rcx
	movq	40(%rsp), %rax
	movq	%rcx, 104(%rsp)
	movq	%rax, 112(%rsp)
	movq	112(%rsp), %rax
	subq	%rdx, %rax
	addq	%rdx, %rcx
	movq	%rcx, 136(%rsp)
	movq	%rax, 144(%rsp)
	movq	136(%rsp), %rcx
	movq	144(%rsp), %rax
	movq	%rcx, 120(%rsp)
	movq	%rax, 128(%rsp)
	movq	120(%rsp), %rcx
	movq	128(%rsp), %rax
	movq	%rcx, 88(%rsp)
	movq	%rax, 96(%rsp)
	movq	64(%rsp), %rcx
	movq	72(%rsp), %rdx
	movq	88(%rsp), %r8
	movq	96(%rsp), %r9
	callq	_ZN73_$LT$$u5b$A$u5d$$u20$as$u20$core..slice..cmp..SlicePartialEq$LT$B$GT$$GT$5equal17hea4a008ad6c2737fE
	andb	$1, %al
	movb	%al, 87(%rsp)
	jmp	.LBB88_3
.LBB88_5:
	movq	40(%rsp), %rdx
	movq	32(%rsp), %rcx
	leaq	__unnamed_16(%rip), %r8
	callq	_ZN4core5slice5index26slice_start_index_len_fail17h366f7c6ce23de04bE
	int3
	.seh_endproc

	.def	_ZN4core5slice6memchr12memchr_naive17h9a942913b8fa47a0E;
	.scl	3;
	.type	32;
	.endef
	.section	.text,"xr",one_only,_ZN4core5slice6memchr12memchr_naive17h9a942913b8fa47a0E
	.p2align	4, 0x90
_ZN4core5slice6memchr12memchr_naive17h9a942913b8fa47a0E:
.seh_proc _ZN4core5slice6memchr12memchr_naive17h9a942913b8fa47a0E
	subq	$88, %rsp
	.seh_stackalloc 88
	.seh_endprologue
	movq	%r8, 40(%rsp)
	movq	%rdx, 48(%rsp)
	movb	%cl, 63(%rsp)
	movq	$0, 80(%rsp)
.LBB89_1:
	movq	40(%rsp), %rax
	cmpq	%rax, 80(%rsp)
	jb	.LBB89_3
	movq	$0, 64(%rsp)
	jmp	.LBB89_4
.LBB89_3:
	movq	40(%rsp), %rcx
	movq	80(%rsp), %rax
	movq	%rax, 32(%rsp)
	cmpq	%rcx, %rax
	setb	%al
	testb	$1, %al
	jne	.LBB89_5
	jmp	.LBB89_6
.LBB89_4:
	movq	64(%rsp), %rax
	movq	72(%rsp), %rdx
	addq	$88, %rsp
	retq
.LBB89_5:
	movq	48(%rsp), %rax
	movq	32(%rsp), %rcx
	movb	63(%rsp), %dl
	cmpb	%dl, (%rax,%rcx)
	je	.LBB89_8
	jmp	.LBB89_7
.LBB89_6:
	movq	40(%rsp), %rdx
	movq	32(%rsp), %rcx
	leaq	__unnamed_17(%rip), %r8
	callq	_ZN4core9panicking18panic_bounds_check17h3d6d0774794afe02E
.LBB89_7:
	movq	80(%rsp), %rax
	addq	$1, %rax
	movq	%rax, 80(%rsp)
	jmp	.LBB89_1
.LBB89_8:
	movq	80(%rsp), %rax
	movq	%rax, 72(%rsp)
	movq	$1, 64(%rsp)
	jmp	.LBB89_4
	.seh_endproc

	.def	_ZN4core6option15Option$LT$T$GT$6map_or17h469f706485dda6b5E;
	.scl	3;
	.type	32;
	.endef
	.section	.text,"xr",one_only,_ZN4core6option15Option$LT$T$GT$6map_or17h469f706485dda6b5E
	.p2align	4, 0x90
_ZN4core6option15Option$LT$T$GT$6map_or17h469f706485dda6b5E:
.Lfunc_begin23:
.seh_proc _ZN4core6option15Option$LT$T$GT$6map_or17h469f706485dda6b5E
	.seh_handler __CxxFrameHandler3, @unwind, @except
	pushq	%rbp
	.seh_pushreg %rbp
	subq	$96, %rsp
	.seh_stackalloc 96
	leaq	96(%rsp), %rbp
	.seh_setframe %rbp, 96
	.seh_endprologue
	movq	$-2, -8(%rbp)
	movq	%r8, -56(%rbp)
	movq	%rcx, -48(%rbp)
	movq	%rcx, -40(%rbp)
	movq	%rdx, -32(%rbp)
	movb	$1, -9(%rbp)
	movb	$1, -10(%rbp)
	movq	-32(%rbp), %rax
	cmpq	$0, %rax
	sete	%al
	testb	$1, %al
	jne	.LBB90_1
	jmp	.LBB90_2
.LBB90_1:
	movq	-48(%rbp), %rax
	movq	-56(%rbp), %rcx
	movb	$0, -9(%rbp)
	movq	(%rcx), %rdx
	movq	%rdx, (%rax)
	movq	8(%rcx), %rdx
	movq	%rdx, 8(%rax)
	movq	16(%rcx), %rcx
	movq	%rcx, 16(%rax)
	jmp	.LBB90_3
.LBB90_2:
	movq	-48(%rbp), %rcx
	movq	-32(%rbp), %rax
	movb	$0, -10(%rbp)
	movq	%rax, -24(%rbp)
	movq	-24(%rbp), %rdx
.Ltmp82:
	callq	_ZN4core3ops8function6FnOnce9call_once17hfc842ef232eb2ce0E
.Ltmp83:
	jmp	.LBB90_5
.LBB90_3:
	testb	$1, -10(%rbp)
	jne	.LBB90_7
	jmp	.LBB90_6
.LBB90_5:
	jmp	.LBB90_3
.LBB90_6:
	testb	$1, -9(%rbp)
	jne	.LBB90_9
	jmp	.LBB90_8
.LBB90_7:
	jmp	.LBB90_6
.LBB90_8:
	movq	-40(%rbp), %rax
	addq	$96, %rsp
	popq	%rbp
	retq
.LBB90_9:
	jmp	.LBB90_8
	.seh_handlerdata
	.long	($cppxdata$_ZN4core6option15Option$LT$T$GT$6map_or17h469f706485dda6b5E)@IMGREL
	.section	.text,"xr",one_only,_ZN4core6option15Option$LT$T$GT$6map_or17h469f706485dda6b5E
	.seh_endproc
	.def	"?dtor$4@?0?_ZN4core6option15Option$LT$T$GT$6map_or17h469f706485dda6b5E@4HA";
	.scl	3;
	.type	32;
	.endef
	.p2align	4, 0x90
"?dtor$4@?0?_ZN4core6option15Option$LT$T$GT$6map_or17h469f706485dda6b5E@4HA":
.seh_proc "?dtor$4@?0?_ZN4core6option15Option$LT$T$GT$6map_or17h469f706485dda6b5E@4HA"
.LBB90_4:
	movq	%rdx, 16(%rsp)
	pushq	%rbp
	.seh_pushreg %rbp
	subq	$32, %rsp
	.seh_stackalloc 32
	leaq	96(%rdx), %rbp
	.seh_endprologue
	testb	$1, -9(%rbp)
	jne	.LBB90_11
	jmp	.LBB90_10
.LBB90_10:
	addq	$32, %rsp
	popq	%rbp
	retq
.LBB90_11:
	jmp	.LBB90_10
.Lfunc_end23:
	.seh_handlerdata
	.section	.text,"xr",one_only,_ZN4core6option15Option$LT$T$GT$6map_or17h469f706485dda6b5E
	.seh_endproc
	.section	.xdata,"dr",associative,_ZN4core6option15Option$LT$T$GT$6map_or17h469f706485dda6b5E
	.p2align	2, 0x0
$cppxdata$_ZN4core6option15Option$LT$T$GT$6map_or17h469f706485dda6b5E:
	.long	429065506
	.long	1
	.long	($stateUnwindMap$_ZN4core6option15Option$LT$T$GT$6map_or17h469f706485dda6b5E)@IMGREL
	.long	0
	.long	0
	.long	3
	.long	($ip2state$_ZN4core6option15Option$LT$T$GT$6map_or17h469f706485dda6b5E)@IMGREL
	.long	88
	.long	0
	.long	1
$stateUnwindMap$_ZN4core6option15Option$LT$T$GT$6map_or17h469f706485dda6b5E:
	.long	-1
	.long	"?dtor$4@?0?_ZN4core6option15Option$LT$T$GT$6map_or17h469f706485dda6b5E@4HA"@IMGREL
$ip2state$_ZN4core6option15Option$LT$T$GT$6map_or17h469f706485dda6b5E:
	.long	.Lfunc_begin23@IMGREL
	.long	-1
	.long	.Ltmp82@IMGREL+1
	.long	0
	.long	.Ltmp83@IMGREL+1
	.long	-1
	.section	.text,"xr",one_only,_ZN4core6option15Option$LT$T$GT$6map_or17h469f706485dda6b5E

	.def	_ZN4core6option15Option$LT$T$GT$6unwrap17hbd0bf8ae5e1ed99bE;
	.scl	3;
	.type	32;
	.endef
	.section	.text,"xr",one_only,_ZN4core6option15Option$LT$T$GT$6unwrap17hbd0bf8ae5e1ed99bE
	.p2align	4, 0x90
_ZN4core6option15Option$LT$T$GT$6unwrap17hbd0bf8ae5e1ed99bE:
.seh_proc _ZN4core6option15Option$LT$T$GT$6unwrap17hbd0bf8ae5e1ed99bE
	subq	$56, %rsp
	.seh_stackalloc 56
	.seh_endprologue
	movq	%r8, 32(%rsp)
	movq	%rcx, 40(%rsp)
	movq	%rdx, 48(%rsp)
	movq	40(%rsp), %rdx
	movl	$1, %eax
	xorl	%ecx, %ecx
	cmpq	$0, %rdx
	cmoveq	%rcx, %rax
	cmpq	$0, %rax
	jne	.LBB91_2
	movq	32(%rsp), %r8
	leaq	__unnamed_18(%rip), %rcx
	movl	$43, %edx
	callq	_ZN4core9panicking5panic17h61d0277f5e1a7407E
.LBB91_2:
	movq	40(%rsp), %rax
	movq	48(%rsp), %rdx
	addq	$56, %rsp
	retq
	.seh_endproc

	.def	_ZN4core6option15Option$LT$T$GT$6unwrap17hbd68e49c9f71c840E;
	.scl	3;
	.type	32;
	.endef
	.section	.text,"xr",one_only,_ZN4core6option15Option$LT$T$GT$6unwrap17hbd68e49c9f71c840E
	.p2align	4, 0x90
_ZN4core6option15Option$LT$T$GT$6unwrap17hbd68e49c9f71c840E:
.seh_proc _ZN4core6option15Option$LT$T$GT$6unwrap17hbd68e49c9f71c840E
	subq	$56, %rsp
	.seh_stackalloc 56
	.seh_endprologue
	movq	%r8, 40(%rsp)
	movl	%ecx, 48(%rsp)
	movl	%edx, 52(%rsp)
	movl	48(%rsp), %eax
	cmpq	$0, %rax
	jne	.LBB92_2
	movq	40(%rsp), %r8
	leaq	__unnamed_18(%rip), %rcx
	movl	$43, %edx
	callq	_ZN4core9panicking5panic17h61d0277f5e1a7407E
.LBB92_2:
	movl	52(%rsp), %eax
	addq	$56, %rsp
	retq
	.seh_endproc

	.def	_ZN4core6option15Option$LT$T$GT$7is_none17h8a3b7daceb8ad9a1E;
	.scl	3;
	.type	32;
	.endef
	.section	.text,"xr",one_only,_ZN4core6option15Option$LT$T$GT$7is_none17h8a3b7daceb8ad9a1E
	.p2align	4, 0x90
_ZN4core6option15Option$LT$T$GT$7is_none17h8a3b7daceb8ad9a1E:
	cmpq	$1, (%rcx)
	sete	%al
	xorb	$-1, %al
	andb	$1, %al
	movzbl	%al, %eax
	retq

	.def	_ZN4core6result19Result$LT$T$C$E$GT$6unwrap17ha0e51fbb1b119297E;
	.scl	3;
	.type	32;
	.endef
	.section	.text,"xr",one_only,_ZN4core6result19Result$LT$T$C$E$GT$6unwrap17ha0e51fbb1b119297E
	.p2align	4, 0x90
_ZN4core6result19Result$LT$T$C$E$GT$6unwrap17ha0e51fbb1b119297E:
.Lfunc_begin24:
.seh_proc _ZN4core6result19Result$LT$T$C$E$GT$6unwrap17ha0e51fbb1b119297E
	.seh_handler __CxxFrameHandler3, @unwind, @except
	pushq	%rbp
	.seh_pushreg %rbp
	subq	$96, %rsp
	.seh_stackalloc 96
	leaq	96(%rsp), %rbp
	.seh_setframe %rbp, 96
	.seh_endprologue
	movq	$-2, -8(%rbp)
	movq	%r8, -48(%rbp)
	movq	%rdx, -40(%rbp)
	movq	%rcx, -32(%rbp)
	movq	%rcx, -24(%rbp)
	movabsq	$-9223372036854775808, %r8
	xorl	%eax, %eax
	movl	$1, %ecx
	cmpq	%r8, (%rdx)
	cmoveq	%rcx, %rax
	cmpq	$0, %rax
	jne	.LBB94_2
	movq	-24(%rbp), %rax
	movq	-32(%rbp), %rcx
	movq	-40(%rbp), %rdx
	movq	(%rdx), %r8
	movq	%r8, (%rcx)
	movq	8(%rdx), %r8
	movq	%r8, 8(%rcx)
	movq	16(%rdx), %rdx
	movq	%rdx, 16(%rcx)
	addq	$96, %rsp
	popq	%rbp
	retq
.LBB94_2:
	movq	-48(%rbp), %rcx
	movq	-40(%rbp), %rax
	movq	8(%rax), %rax
	movq	%rax, -16(%rbp)
.Ltmp84:
	movq	%rsp, %rax
	movq	%rcx, 32(%rax)
	leaq	__unnamed_19(%rip), %rcx
	leaq	__unnamed_20(%rip), %r9
	movl	$43, %edx
	leaq	-16(%rbp), %r8
	callq	_ZN4core6result13unwrap_failed17ha5ed703a0013277bE
.Ltmp85:
	jmp	.LBB94_4
.LBB94_4:
	ud2
	.seh_handlerdata
	.long	($cppxdata$_ZN4core6result19Result$LT$T$C$E$GT$6unwrap17ha0e51fbb1b119297E)@IMGREL
	.section	.text,"xr",one_only,_ZN4core6result19Result$LT$T$C$E$GT$6unwrap17ha0e51fbb1b119297E
	.seh_endproc
	.def	"?dtor$3@?0?_ZN4core6result19Result$LT$T$C$E$GT$6unwrap17ha0e51fbb1b119297E@4HA";
	.scl	3;
	.type	32;
	.endef
	.p2align	4, 0x90
"?dtor$3@?0?_ZN4core6result19Result$LT$T$C$E$GT$6unwrap17ha0e51fbb1b119297E@4HA":
.seh_proc "?dtor$3@?0?_ZN4core6result19Result$LT$T$C$E$GT$6unwrap17ha0e51fbb1b119297E@4HA"
.LBB94_3:
	movq	%rdx, 16(%rsp)
	pushq	%rbp
	.seh_pushreg %rbp
	subq	$48, %rsp
	.seh_stackalloc 48
	leaq	96(%rdx), %rbp
	.seh_endprologue
	leaq	-16(%rbp), %rcx
	callq	_ZN4core3ptr42drop_in_place$LT$std..io..error..Error$GT$17hafc8ec0874c34cb6E
	nop
	addq	$48, %rsp
	popq	%rbp
	retq
.Lfunc_end24:
	.seh_handlerdata
	.section	.text,"xr",one_only,_ZN4core6result19Result$LT$T$C$E$GT$6unwrap17ha0e51fbb1b119297E
	.seh_endproc
	.section	.xdata,"dr",associative,_ZN4core6result19Result$LT$T$C$E$GT$6unwrap17ha0e51fbb1b119297E
	.p2align	2, 0x0
$cppxdata$_ZN4core6result19Result$LT$T$C$E$GT$6unwrap17ha0e51fbb1b119297E:
	.long	429065506
	.long	1
	.long	($stateUnwindMap$_ZN4core6result19Result$LT$T$C$E$GT$6unwrap17ha0e51fbb1b119297E)@IMGREL
	.long	0
	.long	0
	.long	3
	.long	($ip2state$_ZN4core6result19Result$LT$T$C$E$GT$6unwrap17ha0e51fbb1b119297E)@IMGREL
	.long	88
	.long	0
	.long	1
$stateUnwindMap$_ZN4core6result19Result$LT$T$C$E$GT$6unwrap17ha0e51fbb1b119297E:
	.long	-1
	.long	"?dtor$3@?0?_ZN4core6result19Result$LT$T$C$E$GT$6unwrap17ha0e51fbb1b119297E@4HA"@IMGREL
$ip2state$_ZN4core6result19Result$LT$T$C$E$GT$6unwrap17ha0e51fbb1b119297E:
	.long	.Lfunc_begin24@IMGREL
	.long	-1
	.long	.Ltmp84@IMGREL+1
	.long	0
	.long	.Ltmp85@IMGREL+1
	.long	-1
	.section	.text,"xr",one_only,_ZN4core6result19Result$LT$T$C$E$GT$6unwrap17ha0e51fbb1b119297E

	.def	_ZN4core6result19Result$LT$T$C$E$GT$7map_err17h299a5fae3c9d0664E;
	.scl	3;
	.type	32;
	.endef
	.section	.text,"xr",one_only,_ZN4core6result19Result$LT$T$C$E$GT$7map_err17h299a5fae3c9d0664E
	.p2align	4, 0x90
_ZN4core6result19Result$LT$T$C$E$GT$7map_err17h299a5fae3c9d0664E:
.seh_proc _ZN4core6result19Result$LT$T$C$E$GT$7map_err17h299a5fae3c9d0664E
	subq	$72, %rsp
	.seh_stackalloc 72
	.seh_endprologue
	movq	%rcx, 32(%rsp)
	movq	%rcx, 40(%rsp)
	movq	%rdx, 48(%rsp)
	movq	%r8, 56(%rsp)
	movb	$1, 71(%rsp)
	xorl	%eax, %eax
	movl	$1, %ecx
	cmpq	$0, 48(%rsp)
	cmoveq	%rcx, %rax
	cmpq	$0, %rax
	jne	.LBB95_2
	movq	32(%rsp), %rax
	movq	48(%rsp), %rdx
	movq	56(%rsp), %rcx
	movq	%rdx, 8(%rax)
	movq	%rcx, 16(%rax)
	movq	$0, (%rax)
	jmp	.LBB95_3
.LBB95_2:
	movb	$0, 71(%rsp)
	callq	_ZN5alloc7raw_vec11finish_grow28_$u7b$$u7b$closure$u7d$$u7d$17ha8de821f49914af5E
	movq	%rax, %rcx
	movq	32(%rsp), %rax
	movq	%rcx, 8(%rax)
	movq	%rdx, 16(%rax)
	movq	$1, (%rax)
.LBB95_3:
	testb	$1, 71(%rsp)
	jne	.LBB95_5
.LBB95_4:
	movq	40(%rsp), %rax
	addq	$72, %rsp
	retq
.LBB95_5:
	jmp	.LBB95_4
	.seh_endproc

	.def	_ZN4core6result19Result$LT$T$C$E$GT$7map_err17h3bad52f18e8771c9E;
	.scl	3;
	.type	32;
	.endef
	.section	.text,"xr",one_only,_ZN4core6result19Result$LT$T$C$E$GT$7map_err17h3bad52f18e8771c9E
	.p2align	4, 0x90
_ZN4core6result19Result$LT$T$C$E$GT$7map_err17h3bad52f18e8771c9E:
.seh_proc _ZN4core6result19Result$LT$T$C$E$GT$7map_err17h3bad52f18e8771c9E
	subq	$88, %rsp
	.seh_stackalloc 88
	.seh_endprologue
	movq	%rcx, 32(%rsp)
	movq	%rdx, 40(%rsp)
	movb	$1, 87(%rsp)
	movabsq	$-9223372036854775807, %rdx
	movl	$1, %eax
	xorl	%ecx, %ecx
	cmpq	%rdx, 32(%rsp)
	cmoveq	%rcx, %rax
	cmpq	$0, %rax
	jne	.LBB96_2
	movabsq	$-9223372036854775807, %rax
	movq	%rax, 48(%rsp)
	jmp	.LBB96_3
.LBB96_2:
	movq	32(%rsp), %rcx
	movq	40(%rsp), %rax
	movb	$0, 87(%rsp)
	movq	%rcx, 64(%rsp)
	movq	%rax, 72(%rsp)
	movq	64(%rsp), %rcx
	movq	72(%rsp), %rdx
	callq	_ZN5alloc7raw_vec14handle_reserve28_$u7b$$u7b$closure$u7d$$u7d$17h786b98da3655cf8aE
	movq	%rax, 48(%rsp)
	movq	%rdx, 56(%rsp)
.LBB96_3:
	testb	$1, 87(%rsp)
	jne	.LBB96_5
.LBB96_4:
	movq	48(%rsp), %rax
	movq	56(%rsp), %rdx
	addq	$88, %rsp
	retq
.LBB96_5:
	jmp	.LBB96_4
	.seh_endproc

	.def	_ZN4core6result19Result$LT$T$C$E$GT$7map_err17hc0ac686f2449d14fE;
	.scl	3;
	.type	32;
	.endef
	.section	.text,"xr",one_only,_ZN4core6result19Result$LT$T$C$E$GT$7map_err17hc0ac686f2449d14fE
	.p2align	4, 0x90
_ZN4core6result19Result$LT$T$C$E$GT$7map_err17hc0ac686f2449d14fE:
.seh_proc _ZN4core6result19Result$LT$T$C$E$GT$7map_err17hc0ac686f2449d14fE
	subq	$88, %rsp
	.seh_stackalloc 88
	.seh_endprologue
	movq	%r9, 40(%rsp)
	movq	%rcx, 48(%rsp)
	movq	%rcx, 56(%rsp)
	movq	%rdx, 64(%rsp)
	movq	%r8, 72(%rsp)
	movb	$1, 87(%rsp)
	movq	64(%rsp), %rdx
	xorl	%eax, %eax
	movl	$1, %ecx
	cmpq	$0, %rdx
	cmoveq	%rcx, %rax
	cmpq	$0, %rax
	jne	.LBB97_2
	movq	48(%rsp), %rax
	movq	64(%rsp), %rdx
	movq	72(%rsp), %rcx
	movq	%rdx, 8(%rax)
	movq	%rcx, 16(%rax)
	movq	$0, (%rax)
	jmp	.LBB97_3
.LBB97_2:
	movq	40(%rsp), %rcx
	movb	$0, 87(%rsp)
	callq	_ZN5alloc7raw_vec11finish_grow28_$u7b$$u7b$closure$u7d$$u7d$17h9e6760e9ff09a988E
	movq	%rax, %rcx
	movq	48(%rsp), %rax
	movq	%rcx, 8(%rax)
	movq	%rdx, 16(%rax)
	movq	$1, (%rax)
.LBB97_3:
	testb	$1, 87(%rsp)
	jne	.LBB97_5
.LBB97_4:
	movq	56(%rsp), %rax
	addq	$88, %rsp
	retq
.LBB97_5:
	jmp	.LBB97_4
	.seh_endproc

	.def	_ZN52_$LT$char$u20$as$u20$core..str..pattern..Pattern$GT$13into_searcher17h1386d4758ddd13c8E;
	.scl	3;
	.type	32;
	.endef
	.section	.text,"xr",one_only,_ZN52_$LT$char$u20$as$u20$core..str..pattern..Pattern$GT$13into_searcher17h1386d4758ddd13c8E
	.p2align	4, 0x90
_ZN52_$LT$char$u20$as$u20$core..str..pattern..Pattern$GT$13into_searcher17h1386d4758ddd13c8E:
.seh_proc _ZN52_$LT$char$u20$as$u20$core..str..pattern..Pattern$GT$13into_searcher17h1386d4758ddd13c8E
	subq	$88, %rsp
	.seh_stackalloc 88
	.seh_endprologue
	movq	%r9, 48(%rsp)
	movq	%r8, 40(%rsp)
	movl	%edx, 60(%rsp)
	movq	%rcx, %rax
	movl	60(%rsp), %ecx
	movq	%rax, 64(%rsp)
	movq	%rax, 72(%rsp)
	movl	$0, 80(%rsp)
	leaq	80(%rsp), %rdx
	movl	$4, %r8d
	callq	_ZN4core4char7methods15encode_utf8_raw17hf5141903a742ea7aE
	movq	40(%rsp), %r10
	movq	48(%rsp), %r9
	movl	60(%rsp), %r8d
	movq	64(%rsp), %rcx
	movq	72(%rsp), %rax
	movl	80(%rsp), %r11d
	movl	%r11d, 84(%rsp)
	movq	%r10, (%rcx)
	movq	%r9, 8(%rcx)
	movq	$0, 16(%rcx)
	movq	%r9, 24(%rcx)
	movl	%r8d, 44(%rcx)
	movq	%rdx, 32(%rcx)
	movl	84(%rsp), %edx
	movl	%edx, 40(%rcx)
	addq	$88, %rsp
	retq
	.seh_endproc

	.def	_ZN54_$LT$$LP$$RP$$u20$as$u20$std..process..Termination$GT$6report17h7852a051559fdc9bE;
	.scl	3;
	.type	32;
	.endef
	.section	.text,"xr",one_only,_ZN54_$LT$$LP$$RP$$u20$as$u20$std..process..Termination$GT$6report17h7852a051559fdc9bE
	.p2align	4, 0x90
_ZN54_$LT$$LP$$RP$$u20$as$u20$std..process..Termination$GT$6report17h7852a051559fdc9bE:
	xorl	%eax, %eax
	retq

	.def	_ZN55_$LT$$RF$T$u20$as$u20$core..convert..AsRef$LT$U$GT$$GT$6as_ref17h3fdac3ecd6681102E;
	.scl	3;
	.type	32;
	.endef
	.section	.text,"xr",one_only,_ZN55_$LT$$RF$T$u20$as$u20$core..convert..AsRef$LT$U$GT$$GT$6as_ref17h3fdac3ecd6681102E
	.p2align	4, 0x90
_ZN55_$LT$$RF$T$u20$as$u20$core..convert..AsRef$LT$U$GT$$GT$6as_ref17h3fdac3ecd6681102E:
.seh_proc _ZN55_$LT$$RF$T$u20$as$u20$core..convert..AsRef$LT$U$GT$$GT$6as_ref17h3fdac3ecd6681102E
	subq	$40, %rsp
	.seh_stackalloc 40
	.seh_endprologue
	movq	%rcx, %rax
	movq	(%rax), %rcx
	movq	8(%rax), %rdx
	callq	_ZN3std4path77_$LT$impl$u20$core..convert..AsRef$LT$std..path..Path$GT$$u20$for$u20$str$GT$6as_ref17h8870f8047c5a96a2E
	nop
	addq	$40, %rsp
	retq
	.seh_endproc

	.def	_ZN55_$LT$$RF$str$u20$as$u20$core..str..pattern..Pattern$GT$15strip_suffix_of17hc82d1b9cf98e0da1E;
	.scl	3;
	.type	32;
	.endef
	.section	.text,"xr",one_only,_ZN55_$LT$$RF$str$u20$as$u20$core..str..pattern..Pattern$GT$15strip_suffix_of17hc82d1b9cf98e0da1E
	.p2align	4, 0x90
_ZN55_$LT$$RF$str$u20$as$u20$core..str..pattern..Pattern$GT$15strip_suffix_of17hc82d1b9cf98e0da1E:
.seh_proc _ZN55_$LT$$RF$str$u20$as$u20$core..str..pattern..Pattern$GT$15strip_suffix_of17hc82d1b9cf98e0da1E
	subq	$104, %rsp
	.seh_stackalloc 104
	.seh_endprologue
	movq	%r9, 32(%rsp)
	movq	%r8, 48(%rsp)
	movq	%rdx, %r9
	movq	32(%rsp), %rdx
	movq	%r9, 40(%rsp)
	movq	%rcx, %r8
	movq	48(%rsp), %rcx
	callq	_ZN4core5slice29_$LT$impl$u20$$u5b$T$u5d$$GT$9ends_with17h30a31ec8337fe734E
	testb	$1, %al
	jne	.LBB101_2
	movq	$0, 56(%rsp)
	jmp	.LBB101_3
.LBB101_2:
	movq	48(%rsp), %rcx
	movq	40(%rsp), %rdx
	movq	32(%rsp), %rax
	subq	%rdx, %rax
	subq	$0, %rax
	movq	%rcx, 88(%rsp)
	movq	%rax, 96(%rsp)
	movq	88(%rsp), %rcx
	movq	96(%rsp), %rax
	movq	%rcx, 72(%rsp)
	movq	%rax, 80(%rsp)
	movq	72(%rsp), %rcx
	movq	80(%rsp), %rax
	movq	%rcx, 56(%rsp)
	movq	%rax, 64(%rsp)
.LBB101_3:
	movq	56(%rsp), %rax
	movq	64(%rsp), %rdx
	addq	$104, %rsp
	retq
	.seh_endproc

	.def	_ZN56_$LT$usize$u20$as$u20$core..iter..traits..accum..Sum$GT$3sum28_$u7b$$u7b$closure$u7d$$u7d$17h36ae761eab448b32E;
	.scl	3;
	.type	32;
	.endef
	.section	.text,"xr",one_only,_ZN56_$LT$usize$u20$as$u20$core..iter..traits..accum..Sum$GT$3sum28_$u7b$$u7b$closure$u7d$$u7d$17h36ae761eab448b32E
	.p2align	4, 0x90
_ZN56_$LT$usize$u20$as$u20$core..iter..traits..accum..Sum$GT$3sum28_$u7b$$u7b$closure$u7d$$u7d$17h36ae761eab448b32E:
.seh_proc _ZN56_$LT$usize$u20$as$u20$core..iter..traits..accum..Sum$GT$3sum28_$u7b$$u7b$closure$u7d$$u7d$17h36ae761eab448b32E
	subq	$40, %rsp
	.seh_stackalloc 40
	.seh_endprologue
	addq	%r8, %rdx
	movq	%rdx, 32(%rsp)
	setb	%al
	testb	$1, %al
	jne	.LBB102_2
	movq	32(%rsp), %rax
	addq	$40, %rsp
	retq
.LBB102_2:
	leaq	str.0(%rip), %rcx
	leaq	__unnamed_21(%rip), %r8
	movl	$28, %edx
	callq	_ZN4core9panicking5panic17h61d0277f5e1a7407E
	int3
	.seh_endproc

	.def	_ZN5alloc3vec16Vec$LT$T$C$A$GT$16extend_desugared17h224c847907131c9cE;
	.scl	3;
	.type	32;
	.endef
	.section	.text,"xr",one_only,_ZN5alloc3vec16Vec$LT$T$C$A$GT$16extend_desugared17h224c847907131c9cE
	.p2align	4, 0x90
_ZN5alloc3vec16Vec$LT$T$C$A$GT$16extend_desugared17h224c847907131c9cE:
.Lfunc_begin25:
.seh_proc _ZN5alloc3vec16Vec$LT$T$C$A$GT$16extend_desugared17h224c847907131c9cE
	.seh_handler __CxxFrameHandler3, @unwind, @except
	pushq	%rbp
	.seh_pushreg %rbp
	subq	$128, %rsp
	.seh_stackalloc 128
	leaq	128(%rsp), %rbp
	.seh_setframe %rbp, 128
	.seh_endprologue
	movq	$-2, -8(%rbp)
	movq	%rdx, -72(%rbp)
	movq	%rcx, -64(%rbp)
.LBB103_1:
.Ltmp86:
	movq	-72(%rbp), %rcx
	callq	_ZN114_$LT$core..iter..adapters..flatten..FlatMap$LT$I$C$U$C$F$GT$$u20$as$u20$core..iter..traits..iterator..Iterator$GT$4next17h48739dc6eb98899bE
.Ltmp87:
	movb	%dl, -74(%rbp)
	movb	%al, -73(%rbp)
	jmp	.LBB103_3
.LBB103_3:
	movb	-74(%rbp), %al
	movb	-73(%rbp), %cl
	movb	%cl, -50(%rbp)
	movb	%al, -49(%rbp)
	movb	-50(%rbp), %al
	testb	$1, %al
	jne	.LBB103_4
	jmp	.LBB103_5
.LBB103_4:
	movq	-64(%rbp), %rcx
	movb	-49(%rbp), %al
	movb	%al, -89(%rbp)
	movq	16(%rcx), %rax
	movq	%rax, -88(%rbp)
	movq	(%rcx), %rcx
	movq	%rcx, -48(%rbp)
	cmpq	-48(%rbp), %rax
	je	.LBB103_7
	jmp	.LBB103_6
.LBB103_5:
	addq	$128, %rsp
	popq	%rbp
	retq
.LBB103_6:
	jmp	.LBB103_8
.LBB103_7:
.Ltmp88:
	movq	-72(%rbp), %rdx
	leaq	-40(%rbp), %rcx
	callq	_ZN114_$LT$core..iter..adapters..flatten..FlatMap$LT$I$C$U$C$F$GT$$u20$as$u20$core..iter..traits..iterator..Iterator$GT$9size_hint17h5964ddf8aea699d2E
.Ltmp89:
	jmp	.LBB103_10
.LBB103_8:
	movq	-64(%rbp), %rax
	movq	-88(%rbp), %rcx
	movb	-89(%rbp), %r8b
	movq	8(%rax), %rdx
	movb	%r8b, (%rdx,%rcx)
	addq	$1, %rcx
	movq	%rcx, 16(%rax)
	jmp	.LBB103_1
.LBB103_10:
	movq	-64(%rbp), %rcx
	movq	-40(%rbp), %rax
	incq	%rax
	movq	$-1, %rdx
	cmoveq	%rdx, %rax
	movq	%rax, -16(%rbp)
	movq	-16(%rbp), %rdx
.Ltmp90:
	callq	_ZN5alloc3vec16Vec$LT$T$C$A$GT$7reserve17ha4fb46055dc38c7dE
.Ltmp91:
	jmp	.LBB103_11
.LBB103_11:
	jmp	.LBB103_8
	.seh_handlerdata
	.long	($cppxdata$_ZN5alloc3vec16Vec$LT$T$C$A$GT$16extend_desugared17h224c847907131c9cE)@IMGREL
	.section	.text,"xr",one_only,_ZN5alloc3vec16Vec$LT$T$C$A$GT$16extend_desugared17h224c847907131c9cE
	.seh_endproc
	.def	"?dtor$2@?0?_ZN5alloc3vec16Vec$LT$T$C$A$GT$16extend_desugared17h224c847907131c9cE@4HA";
	.scl	3;
	.type	32;
	.endef
	.p2align	4, 0x90
"?dtor$2@?0?_ZN5alloc3vec16Vec$LT$T$C$A$GT$16extend_desugared17h224c847907131c9cE@4HA":
.seh_proc "?dtor$2@?0?_ZN5alloc3vec16Vec$LT$T$C$A$GT$16extend_desugared17h224c847907131c9cE@4HA"
.LBB103_2:
	movq	%rdx, 16(%rsp)
	pushq	%rbp
	.seh_pushreg %rbp
	subq	$32, %rsp
	.seh_stackalloc 32
	leaq	128(%rdx), %rbp
	.seh_endprologue
	addq	$32, %rsp
	popq	%rbp
	retq
	.seh_handlerdata
	.section	.text,"xr",one_only,_ZN5alloc3vec16Vec$LT$T$C$A$GT$16extend_desugared17h224c847907131c9cE
	.seh_endproc
	.def	"?dtor$9@?0?_ZN5alloc3vec16Vec$LT$T$C$A$GT$16extend_desugared17h224c847907131c9cE@4HA";
	.scl	3;
	.type	32;
	.endef
	.p2align	4, 0x90
"?dtor$9@?0?_ZN5alloc3vec16Vec$LT$T$C$A$GT$16extend_desugared17h224c847907131c9cE@4HA":
.seh_proc "?dtor$9@?0?_ZN5alloc3vec16Vec$LT$T$C$A$GT$16extend_desugared17h224c847907131c9cE@4HA"
.LBB103_9:
	movq	%rdx, 16(%rsp)
	pushq	%rbp
	.seh_pushreg %rbp
	subq	$32, %rsp
	.seh_stackalloc 32
	leaq	128(%rdx), %rbp
	.seh_endprologue
	addq	$32, %rsp
	popq	%rbp
	retq
.Lfunc_end25:
	.seh_handlerdata
	.section	.text,"xr",one_only,_ZN5alloc3vec16Vec$LT$T$C$A$GT$16extend_desugared17h224c847907131c9cE
	.seh_endproc
	.section	.xdata,"dr",associative,_ZN5alloc3vec16Vec$LT$T$C$A$GT$16extend_desugared17h224c847907131c9cE
	.p2align	2, 0x0
$cppxdata$_ZN5alloc3vec16Vec$LT$T$C$A$GT$16extend_desugared17h224c847907131c9cE:
	.long	429065506
	.long	2
	.long	($stateUnwindMap$_ZN5alloc3vec16Vec$LT$T$C$A$GT$16extend_desugared17h224c847907131c9cE)@IMGREL
	.long	0
	.long	0
	.long	4
	.long	($ip2state$_ZN5alloc3vec16Vec$LT$T$C$A$GT$16extend_desugared17h224c847907131c9cE)@IMGREL
	.long	120
	.long	0
	.long	1
$stateUnwindMap$_ZN5alloc3vec16Vec$LT$T$C$A$GT$16extend_desugared17h224c847907131c9cE:
	.long	-1
	.long	"?dtor$2@?0?_ZN5alloc3vec16Vec$LT$T$C$A$GT$16extend_desugared17h224c847907131c9cE@4HA"@IMGREL
	.long	0
	.long	"?dtor$9@?0?_ZN5alloc3vec16Vec$LT$T$C$A$GT$16extend_desugared17h224c847907131c9cE@4HA"@IMGREL
$ip2state$_ZN5alloc3vec16Vec$LT$T$C$A$GT$16extend_desugared17h224c847907131c9cE:
	.long	.Lfunc_begin25@IMGREL
	.long	-1
	.long	.Ltmp86@IMGREL+1
	.long	0
	.long	.Ltmp88@IMGREL+1
	.long	1
	.long	.Ltmp91@IMGREL+1
	.long	-1
	.section	.text,"xr",one_only,_ZN5alloc3vec16Vec$LT$T$C$A$GT$16extend_desugared17h224c847907131c9cE

	.def	_ZN5alloc3vec16Vec$LT$T$C$A$GT$7reserve17ha4fb46055dc38c7dE;
	.scl	3;
	.type	32;
	.endef
	.section	.text,"xr",one_only,_ZN5alloc3vec16Vec$LT$T$C$A$GT$7reserve17ha4fb46055dc38c7dE
	.p2align	4, 0x90
_ZN5alloc3vec16Vec$LT$T$C$A$GT$7reserve17ha4fb46055dc38c7dE:
.seh_proc _ZN5alloc3vec16Vec$LT$T$C$A$GT$7reserve17ha4fb46055dc38c7dE
	subq	$72, %rsp
	.seh_stackalloc 72
	.seh_endprologue
	movq	%rdx, 40(%rsp)
	movq	%rcx, 48(%rsp)
	movq	16(%rcx), %rax
	movq	%rax, 56(%rsp)
	xorl	%eax, %eax
	testb	$1, %al
	jne	.LBB104_2
	movq	48(%rsp), %rax
	movq	(%rax), %rax
	movq	%rax, 64(%rsp)
	jmp	.LBB104_3
.LBB104_2:
	movq	$-1, 64(%rsp)
.LBB104_3:
	movq	40(%rsp), %rax
	movq	56(%rsp), %rdx
	movq	64(%rsp), %rcx
	subq	%rdx, %rcx
	cmpq	%rcx, %rax
	ja	.LBB104_5
.LBB104_4:
	addq	$72, %rsp
	retq
.LBB104_5:
	movq	40(%rsp), %r8
	movq	56(%rsp), %rdx
	movq	48(%rsp), %rcx
	callq	_ZN5alloc7raw_vec19RawVec$LT$T$C$A$GT$7reserve21do_reserve_and_handle17h587d3d9522cc8a67E
	jmp	.LBB104_4
	.seh_endproc

	.def	_ZN5alloc5alloc15exchange_malloc17hcde6b4b3e19c7e9eE;
	.scl	3;
	.type	32;
	.endef
	.section	.text,"xr",one_only,_ZN5alloc5alloc15exchange_malloc17hcde6b4b3e19c7e9eE
	.p2align	4, 0x90
_ZN5alloc5alloc15exchange_malloc17hcde6b4b3e19c7e9eE:
.seh_proc _ZN5alloc5alloc15exchange_malloc17hcde6b4b3e19c7e9eE
	subq	$72, %rsp
	.seh_stackalloc 72
	.seh_endprologue
	movq	%rcx, 40(%rsp)
	movq	%rdx, 32(%rsp)
	movq	32(%rsp), %rdx
	movq	40(%rsp), %r8
	leaq	__unnamed_6(%rip), %rcx
	xorl	%eax, %eax
	movb	%al, %r9b
	callq	_ZN5alloc5alloc6Global10alloc_impl17hdd7f3bfd7fb44c42E
	movq	%rdx, 56(%rsp)
	movq	%rax, 48(%rsp)
	movq	48(%rsp), %rdx
	xorl	%eax, %eax
	movl	$1, %ecx
	cmpq	$0, %rdx
	cmoveq	%rcx, %rax
	cmpq	$0, %rax
	jne	.LBB105_2
	movq	48(%rsp), %rax
	movq	%rax, 64(%rsp)
	movq	64(%rsp), %rax
	addq	$72, %rsp
	retq
.LBB105_2:
	movq	32(%rsp), %rcx
	movq	40(%rsp), %rdx
	callq	_ZN5alloc5alloc18handle_alloc_error17h15f7727f41d4cf0fE
	int3
	.seh_endproc

	.def	_ZN5alloc5alloc6Global10alloc_impl17hdd7f3bfd7fb44c42E;
	.scl	3;
	.type	32;
	.endef
	.section	.text,"xr",one_only,_ZN5alloc5alloc6Global10alloc_impl17hdd7f3bfd7fb44c42E
	.p2align	4, 0x90
_ZN5alloc5alloc6Global10alloc_impl17hdd7f3bfd7fb44c42E:
.seh_proc _ZN5alloc5alloc6Global10alloc_impl17hdd7f3bfd7fb44c42E
	subq	$296, %rsp
	.seh_stackalloc 296
	.seh_endprologue
	movb	%r9b, 47(%rsp)
	movq	%rdx, 56(%rsp)
	movq	%r8, 64(%rsp)
	movq	64(%rsp), %rax
	movq	%rax, 48(%rsp)
	cmpq	$0, %rax
	jne	.LBB106_2
	movq	56(%rsp), %rax
	movq	%rax, 192(%rsp)
	movq	192(%rsp), %rax
	movq	%rax, 104(%rsp)
	movq	104(%rsp), %rax
	movq	%rax, 216(%rsp)
	movq	$0, 224(%rsp)
	movq	216(%rsp), %rcx
	movq	224(%rsp), %rax
	movq	%rcx, 200(%rsp)
	movq	%rax, 208(%rsp)
	movq	200(%rsp), %rcx
	movq	208(%rsp), %rax
	movq	%rcx, 88(%rsp)
	movq	%rax, 96(%rsp)
	movq	88(%rsp), %rcx
	movq	96(%rsp), %rax
	movq	%rcx, 72(%rsp)
	movq	%rax, 80(%rsp)
	jmp	.LBB106_3
.LBB106_2:
	movb	47(%rsp), %al
	testb	$1, %al
	jne	.LBB106_5
	jmp	.LBB106_4
.LBB106_3:
	movq	72(%rsp), %rax
	movq	80(%rsp), %rdx
	addq	$296, %rsp
	retq
.LBB106_4:
	movq	56(%rsp), %rcx
	movq	64(%rsp), %rax
	movq	%rcx, 136(%rsp)
	movq	%rax, 144(%rsp)
	movb	__rust_no_alloc_shim_is_unstable(%rip), %al
	movb	%al, 295(%rsp)
	movq	144(%rsp), %rcx
	movq	136(%rsp), %rax
	movq	%rax, 240(%rsp)
	movq	240(%rsp), %rdx
	callq	__rust_alloc
	movq	%rax, 112(%rsp)
	jmp	.LBB106_6
.LBB106_5:
	movq	56(%rsp), %rcx
	movq	64(%rsp), %rax
	movq	%rcx, 120(%rsp)
	movq	%rax, 128(%rsp)
	movq	128(%rsp), %rcx
	movq	120(%rsp), %rax
	movq	%rax, 232(%rsp)
	movq	232(%rsp), %rdx
	callq	__rust_alloc_zeroed
	movq	%rax, 112(%rsp)
.LBB106_6:
	movq	112(%rsp), %rax
	movq	%rax, 32(%rsp)
	cmpq	$0, %rax
	jne	.LBB106_8
	movq	$0, 168(%rsp)
	jmp	.LBB106_9
.LBB106_8:
	movq	32(%rsp), %rax
	movq	%rax, 248(%rsp)
	movq	248(%rsp), %rax
	movq	%rax, 168(%rsp)
.LBB106_9:
	movq	168(%rsp), %rdx
	movl	$1, %eax
	xorl	%ecx, %ecx
	cmpq	$0, %rdx
	cmoveq	%rcx, %rax
	cmpq	$0, %rax
	jne	.LBB106_11
	movq	$0, 160(%rsp)
	jmp	.LBB106_12
.LBB106_11:
	movq	168(%rsp), %rax
	movq	%rax, 160(%rsp)
.LBB106_12:
	movq	160(%rsp), %rdx
	xorl	%eax, %eax
	movl	$1, %ecx
	cmpq	$0, %rdx
	cmoveq	%rcx, %rax
	cmpq	$0, %rax
	jne	.LBB106_14
	movq	160(%rsp), %rax
	movq	%rax, 152(%rsp)
	jmp	.LBB106_15
.LBB106_14:
	movq	$0, 152(%rsp)
.LBB106_15:
	movq	152(%rsp), %rdx
	xorl	%eax, %eax
	movl	$1, %ecx
	cmpq	$0, %rdx
	cmoveq	%rcx, %rax
	cmpq	$0, %rax
	jne	.LBB106_17
	movq	48(%rsp), %rax
	movq	152(%rsp), %rcx
	movq	%rcx, 272(%rsp)
	movq	%rax, 280(%rsp)
	movq	272(%rsp), %rcx
	movq	280(%rsp), %rax
	movq	%rcx, 256(%rsp)
	movq	%rax, 264(%rsp)
	movq	256(%rsp), %rcx
	movq	264(%rsp), %rax
	movq	%rcx, 176(%rsp)
	movq	%rax, 184(%rsp)
	movq	176(%rsp), %rcx
	movq	184(%rsp), %rax
	movq	%rcx, 72(%rsp)
	movq	%rax, 80(%rsp)
	jmp	.LBB106_3
.LBB106_17:
	movq	$0, 72(%rsp)
	jmp	.LBB106_3
	.seh_endproc

	.def	_ZN5alloc5alloc6Global9grow_impl17h05479bbbf557ef36E;
	.scl	3;
	.type	32;
	.endef
	.section	.text,"xr",one_only,_ZN5alloc5alloc6Global9grow_impl17h05479bbbf557ef36E
	.p2align	4, 0x90
_ZN5alloc5alloc6Global9grow_impl17h05479bbbf557ef36E:
.seh_proc _ZN5alloc5alloc6Global9grow_impl17h05479bbbf557ef36E
	subq	$328, %rsp
	.seh_stackalloc 328
	.seh_endprologue
	movq	%rdx, 88(%rsp)
	movq	%rcx, 96(%rsp)
	movb	384(%rsp), %al
	movb	%al, 111(%rsp)
	movq	376(%rsp), %rax
	movq	368(%rsp), %rcx
	movq	%r8, 112(%rsp)
	movq	%r9, 120(%rsp)
	movq	%rcx, 128(%rsp)
	movq	%rax, 136(%rsp)
	movq	120(%rsp), %rax
	movq	%rax, 160(%rsp)
	cmpq	$0, 160(%rsp)
	jne	.LBB107_2
	movq	96(%rsp), %rcx
	movb	111(%rsp), %r9b
	movq	128(%rsp), %rdx
	movq	136(%rsp), %r8
	andb	$1, %r9b
	callq	_ZN5alloc5alloc6Global10alloc_impl17hdd7f3bfd7fb44c42E
	movq	%rdx, 152(%rsp)
	movq	%rax, 144(%rsp)
	jmp	.LBB107_3
.LBB107_2:
	movq	112(%rsp), %rax
	movq	%rax, 256(%rsp)
	movq	256(%rsp), %rax
	movq	128(%rsp), %rcx
	movq	%rcx, 264(%rsp)
	movq	264(%rsp), %rcx
	cmpq	%rcx, %rax
	je	.LBB107_5
	jmp	.LBB107_4
.LBB107_3:
	jmp	.LBB107_25
.LBB107_4:
	movq	96(%rsp), %rcx
	movb	111(%rsp), %r9b
	movq	160(%rsp), %rax
	movq	%rax, 80(%rsp)
	movq	128(%rsp), %rdx
	movq	136(%rsp), %r8
	andb	$1, %r9b
	callq	_ZN5alloc5alloc6Global10alloc_impl17hdd7f3bfd7fb44c42E
	movq	%rdx, 248(%rsp)
	movq	%rax, 240(%rsp)
	movq	240(%rsp), %rdx
	xorl	%eax, %eax
	movl	$1, %ecx
	cmpq	$0, %rdx
	cmoveq	%rcx, %rax
	cmpq	$0, %rax
	je	.LBB107_6
	jmp	.LBB107_7
.LBB107_5:
	movq	88(%rsp), %rcx
	movq	160(%rsp), %rax
	movq	%rax, 56(%rsp)
	movq	136(%rsp), %r9
	movq	%r9, 64(%rsp)
	movq	112(%rsp), %rdx
	movq	120(%rsp), %rax
	movq	%rdx, 168(%rsp)
	movq	%rax, 176(%rsp)
	movq	176(%rsp), %rdx
	movq	168(%rsp), %rax
	movq	%rax, 272(%rsp)
	movq	272(%rsp), %r8
	callq	__rust_realloc
	movq	%rax, 72(%rsp)
	cmpq	$0, %rax
	je	.LBB107_12
	jmp	.LBB107_13
.LBB107_6:
	movq	240(%rsp), %rcx
	movq	248(%rsp), %rax
	movq	%rcx, 224(%rsp)
	movq	%rax, 232(%rsp)
	jmp	.LBB107_8
.LBB107_7:
	movq	$0, 224(%rsp)
.LBB107_8:
	movq	224(%rsp), %rdx
	xorl	%eax, %eax
	movl	$1, %ecx
	cmpq	$0, %rdx
	cmoveq	%rcx, %rax
	cmpq	$0, %rax
	jne	.LBB107_10
	movq	88(%rsp), %rdx
	movq	80(%rsp), %r8
	movq	224(%rsp), %rax
	movq	%rax, 40(%rsp)
	movq	232(%rsp), %rcx
	movq	%rcx, 48(%rsp)
	movq	%rax, 320(%rsp)
	movq	320(%rsp), %rcx
	shlq	$0, %r8
	callq	memcpy
	movq	96(%rsp), %rcx
	movq	88(%rsp), %rdx
	movq	112(%rsp), %r8
	movq	120(%rsp), %r9
	callq	_ZN63_$LT$alloc..alloc..Global$u20$as$u20$core..alloc..Allocator$GT$10deallocate17h2905548e42592e89E
	movq	40(%rsp), %rcx
	movq	48(%rsp), %rax
	movq	%rcx, 144(%rsp)
	movq	%rax, 152(%rsp)
	jmp	.LBB107_3
.LBB107_10:
	movq	$0, 144(%rsp)
.LBB107_11:
	jmp	.LBB107_25
.LBB107_12:
	movq	$0, 200(%rsp)
	jmp	.LBB107_14
.LBB107_13:
	movq	72(%rsp), %rax
	movq	%rax, 280(%rsp)
	movq	280(%rsp), %rax
	movq	%rax, 200(%rsp)
.LBB107_14:
	movq	200(%rsp), %rdx
	movl	$1, %eax
	xorl	%ecx, %ecx
	cmpq	$0, %rdx
	cmoveq	%rcx, %rax
	cmpq	$0, %rax
	jne	.LBB107_16
	movq	$0, 192(%rsp)
	jmp	.LBB107_17
.LBB107_16:
	movq	200(%rsp), %rax
	movq	%rax, 192(%rsp)
.LBB107_17:
	movq	192(%rsp), %rdx
	xorl	%eax, %eax
	movl	$1, %ecx
	cmpq	$0, %rdx
	cmoveq	%rcx, %rax
	cmpq	$0, %rax
	jne	.LBB107_19
	movq	192(%rsp), %rax
	movq	%rax, 184(%rsp)
	jmp	.LBB107_20
.LBB107_19:
	movq	$0, 184(%rsp)
.LBB107_20:
	movq	184(%rsp), %rdx
	xorl	%eax, %eax
	movl	$1, %ecx
	cmpq	$0, %rdx
	cmoveq	%rcx, %rax
	cmpq	$0, %rax
	jne	.LBB107_22
	movb	111(%rsp), %al
	movq	184(%rsp), %rcx
	movq	%rcx, 32(%rsp)
	testb	$1, %al
	jne	.LBB107_24
	jmp	.LBB107_23
.LBB107_22:
	movq	$0, 144(%rsp)
	jmp	.LBB107_11
.LBB107_23:
	movq	64(%rsp), %rax
	movq	32(%rsp), %rcx
	movq	%rcx, 304(%rsp)
	movq	%rax, 312(%rsp)
	movq	304(%rsp), %rcx
	movq	312(%rsp), %rax
	movq	%rcx, 288(%rsp)
	movq	%rax, 296(%rsp)
	movq	288(%rsp), %rcx
	movq	296(%rsp), %rax
	movq	%rcx, 208(%rsp)
	movq	%rax, 216(%rsp)
	movq	208(%rsp), %rcx
	movq	216(%rsp), %rax
	movq	%rcx, 144(%rsp)
	movq	%rax, 152(%rsp)
	jmp	.LBB107_3
.LBB107_24:
	movq	56(%rsp), %rax
	movq	64(%rsp), %r8
	movq	72(%rsp), %rcx
	addq	%rax, %rcx
	subq	%rax, %r8
	shlq	$0, %r8
	xorl	%edx, %edx
	callq	memset
	jmp	.LBB107_23
.LBB107_25:
	movq	144(%rsp), %rax
	movq	152(%rsp), %rdx
	addq	$328, %rsp
	retq
	.seh_endproc

	.def	_ZN5alloc7raw_vec11finish_grow17h3f65f517a6211f99E;
	.scl	3;
	.type	32;
	.endef
	.section	.text,"xr",one_only,_ZN5alloc7raw_vec11finish_grow17h3f65f517a6211f99E
	.p2align	4, 0x90
_ZN5alloc7raw_vec11finish_grow17h3f65f517a6211f99E:
.seh_proc _ZN5alloc7raw_vec11finish_grow17h3f65f517a6211f99E
	subq	$296, %rsp
	.seh_stackalloc 296
	.seh_endprologue
	movq	%r9, 48(%rsp)
	movq	%rcx, 56(%rsp)
	movq	%rcx, 64(%rsp)
	movq	336(%rsp), %rax
	movq	%rax, 72(%rsp)
	leaq	120(%rsp), %rcx
	callq	_ZN4core6result19Result$LT$T$C$E$GT$7map_err17h299a5fae3c9d0664E
	cmpq	$0, 120(%rsp)
	jne	.LBB108_2
	movq	128(%rsp), %rcx
	movq	136(%rsp), %rax
	movq	%rcx, 104(%rsp)
	movq	%rax, 112(%rsp)
	movq	$0, 96(%rsp)
	jmp	.LBB108_3
.LBB108_2:
	movq	128(%rsp), %rcx
	movq	136(%rsp), %rax
	movq	%rcx, 248(%rsp)
	movq	%rax, 256(%rsp)
	movq	248(%rsp), %rcx
	movq	256(%rsp), %rax
	movq	%rcx, 104(%rsp)
	movq	%rax, 112(%rsp)
	movq	$1, 96(%rsp)
.LBB108_3:
	cmpq	$0, 96(%rsp)
	jne	.LBB108_5
	movq	104(%rsp), %rcx
	movq	112(%rsp), %rax
	movq	%rcx, 80(%rsp)
	movq	%rax, 88(%rsp)
	movabsq	$-9223372036854775807, %rax
	movq	%rax, 176(%rsp)
	movabsq	$-9223372036854775807, %rax
	movq	%rax, 160(%rsp)
	movabsq	$-9223372036854775807, %rdx
	movl	$1, %eax
	xorl	%ecx, %ecx
	cmpq	%rdx, 160(%rsp)
	cmoveq	%rcx, %rax
	cmpq	$0, %rax
	je	.LBB108_6
	jmp	.LBB108_7
.LBB108_5:
	movq	56(%rsp), %rax
	movq	104(%rsp), %rdx
	movq	112(%rsp), %rcx
	movq	%rdx, 144(%rsp)
	movq	%rcx, 152(%rsp)
	movq	144(%rsp), %rdx
	movq	152(%rsp), %rcx
	movq	%rdx, 264(%rsp)
	movq	%rcx, 272(%rsp)
	movq	264(%rsp), %rdx
	movq	272(%rsp), %rcx
	movq	%rdx, 8(%rax)
	movq	%rcx, 16(%rax)
	movq	$1, (%rax)
	jmp	.LBB108_12
.LBB108_6:
	movq	48(%rsp), %rdx
	movl	$1, %eax
	xorl	%ecx, %ecx
	cmpq	$0, 8(%rdx)
	cmoveq	%rcx, %rax
	cmpq	$1, %rax
	je	.LBB108_8
	jmp	.LBB108_9
.LBB108_7:
	movq	56(%rsp), %rax
	movq	160(%rsp), %rdx
	movq	168(%rsp), %rcx
	movq	%rdx, 192(%rsp)
	movq	%rcx, 200(%rsp)
	movq	192(%rsp), %rdx
	movq	200(%rsp), %rcx
	movq	%rdx, 8(%rax)
	movq	%rcx, 16(%rax)
	movq	$1, (%rax)
	jmp	.LBB108_12
.LBB108_8:
	movq	72(%rsp), %rcx
	movq	48(%rsp), %rax
	movq	(%rax), %rdx
	movq	8(%rax), %r8
	movq	16(%rax), %rax
	movq	%r8, 224(%rsp)
	movq	%rax, 232(%rsp)
	movq	224(%rsp), %rax
	movq	%rax, 280(%rsp)
	movq	80(%rsp), %rax
	movq	%rax, 288(%rsp)
	movq	224(%rsp), %r8
	movq	232(%rsp), %r9
	movq	80(%rsp), %r10
	movq	88(%rsp), %r11
	movq	%rsp, %rax
	movq	%r11, 40(%rax)
	movq	%r10, 32(%rax)
	callq	_ZN63_$LT$alloc..alloc..Global$u20$as$u20$core..alloc..Allocator$GT$4grow17h0dc87623fc72e294E
	movq	%rdx, 216(%rsp)
	movq	%rax, 208(%rsp)
	jmp	.LBB108_10
.LBB108_9:
	movq	72(%rsp), %rcx
	movq	80(%rsp), %rdx
	movq	88(%rsp), %r8
	callq	_ZN63_$LT$alloc..alloc..Global$u20$as$u20$core..alloc..Allocator$GT$8allocate17h475cd9e7537f27d3E
	movq	%rdx, 216(%rsp)
	movq	%rax, 208(%rsp)
.LBB108_10:
	movq	56(%rsp), %rcx
	movq	208(%rsp), %rdx
	movq	216(%rsp), %r8
	leaq	80(%rsp), %rax
	movq	%rax, 240(%rsp)
	movq	240(%rsp), %r9
	callq	_ZN4core6result19Result$LT$T$C$E$GT$7map_err17hc0ac686f2449d14fE
.LBB108_11:
	movq	64(%rsp), %rax
	addq	$296, %rsp
	retq
.LBB108_12:
	jmp	.LBB108_11
	.seh_endproc

	.def	_ZN5alloc7raw_vec11finish_grow28_$u7b$$u7b$closure$u7d$$u7d$17h9e6760e9ff09a988E;
	.scl	3;
	.type	32;
	.endef
	.section	.text,"xr",one_only,_ZN5alloc7raw_vec11finish_grow28_$u7b$$u7b$closure$u7d$$u7d$17h9e6760e9ff09a988E
	.p2align	4, 0x90
_ZN5alloc7raw_vec11finish_grow28_$u7b$$u7b$closure$u7d$$u7d$17h9e6760e9ff09a988E:
.seh_proc _ZN5alloc7raw_vec11finish_grow28_$u7b$$u7b$closure$u7d$$u7d$17h9e6760e9ff09a988E
	subq	$40, %rsp
	.seh_stackalloc 40
	.seh_endprologue
	movq	%rcx, (%rsp)
	movq	(%rsp), %rax
	movq	(%rax), %rcx
	movq	8(%rax), %rax
	movq	%rcx, 24(%rsp)
	movq	%rax, 32(%rsp)
	movq	24(%rsp), %rcx
	movq	32(%rsp), %rax
	movq	%rcx, 8(%rsp)
	movq	%rax, 16(%rsp)
	movq	8(%rsp), %rax
	movq	16(%rsp), %rdx
	addq	$40, %rsp
	retq
	.seh_endproc

	.def	_ZN5alloc7raw_vec11finish_grow28_$u7b$$u7b$closure$u7d$$u7d$17ha8de821f49914af5E;
	.scl	3;
	.type	32;
	.endef
	.section	.text,"xr",one_only,_ZN5alloc7raw_vec11finish_grow28_$u7b$$u7b$closure$u7d$$u7d$17ha8de821f49914af5E
	.p2align	4, 0x90
_ZN5alloc7raw_vec11finish_grow28_$u7b$$u7b$closure$u7d$$u7d$17ha8de821f49914af5E:
.seh_proc _ZN5alloc7raw_vec11finish_grow28_$u7b$$u7b$closure$u7d$$u7d$17ha8de821f49914af5E
	subq	$16, %rsp
	.seh_stackalloc 16
	.seh_endprologue
	movq	$0, (%rsp)
	movq	(%rsp), %rax
	movq	8(%rsp), %rdx
	addq	$16, %rsp
	retq
	.seh_endproc

	.def	_ZN5alloc7raw_vec14handle_reserve17hc596f7f26a750b3fE;
	.scl	3;
	.type	32;
	.endef
	.section	.text,"xr",one_only,_ZN5alloc7raw_vec14handle_reserve17hc596f7f26a750b3fE
	.p2align	4, 0x90
_ZN5alloc7raw_vec14handle_reserve17hc596f7f26a750b3fE:
.seh_proc _ZN5alloc7raw_vec14handle_reserve17hc596f7f26a750b3fE
	subq	$56, %rsp
	.seh_stackalloc 56
	.seh_endprologue
	callq	_ZN4core6result19Result$LT$T$C$E$GT$7map_err17h3bad52f18e8771c9E
	movq	%rdx, 48(%rsp)
	movq	%rax, 40(%rsp)
	movabsq	$-9223372036854775807, %rdx
	movl	$1, %eax
	xorl	%ecx, %ecx
	cmpq	%rdx, 40(%rsp)
	cmoveq	%rcx, %rax
	cmpq	$0, %rax
	jne	.LBB111_2
	addq	$56, %rsp
	retq
.LBB111_2:
	movl	$1, %eax
	xorl	%ecx, %ecx
	cmpq	$0, 40(%rsp)
	cmoveq	%rcx, %rax
	cmpq	$0, %rax
	jne	.LBB111_4
	callq	_ZN5alloc7raw_vec17capacity_overflow17h9a79315ba6b95875E
.LBB111_4:
	movq	40(%rsp), %rcx
	movq	48(%rsp), %rdx
	callq	_ZN5alloc5alloc18handle_alloc_error17h15f7727f41d4cf0fE
	int3
	.seh_endproc

	.def	_ZN5alloc7raw_vec14handle_reserve28_$u7b$$u7b$closure$u7d$$u7d$17h786b98da3655cf8aE;
	.scl	3;
	.type	32;
	.endef
	.section	.text,"xr",one_only,_ZN5alloc7raw_vec14handle_reserve28_$u7b$$u7b$closure$u7d$$u7d$17h786b98da3655cf8aE
	.p2align	4, 0x90
_ZN5alloc7raw_vec14handle_reserve28_$u7b$$u7b$closure$u7d$$u7d$17h786b98da3655cf8aE:
.seh_proc _ZN5alloc7raw_vec14handle_reserve28_$u7b$$u7b$closure$u7d$$u7d$17h786b98da3655cf8aE
	subq	$32, %rsp
	.seh_stackalloc 32
	.seh_endprologue
	movq	%rcx, (%rsp)
	movq	%rdx, 8(%rsp)
	movl	$1, %eax
	xorl	%ecx, %ecx
	cmpq	$0, (%rsp)
	cmoveq	%rcx, %rax
	cmpq	$0, %rax
	jne	.LBB112_2
	movq	$0, 16(%rsp)
	jmp	.LBB112_3
.LBB112_2:
	movq	(%rsp), %rcx
	movq	8(%rsp), %rax
	movq	%rcx, 16(%rsp)
	movq	%rax, 24(%rsp)
.LBB112_3:
	movq	16(%rsp), %rax
	movq	24(%rsp), %rdx
	addq	$32, %rsp
	retq
	.seh_endproc

	.def	_ZN5alloc7raw_vec19RawVec$LT$T$C$A$GT$11allocate_in17h885b1f8491ebd08aE;
	.scl	3;
	.type	32;
	.endef
	.section	.text,"xr",one_only,_ZN5alloc7raw_vec19RawVec$LT$T$C$A$GT$11allocate_in17h885b1f8491ebd08aE
	.p2align	4, 0x90
_ZN5alloc7raw_vec19RawVec$LT$T$C$A$GT$11allocate_in17h885b1f8491ebd08aE:
.Lfunc_begin26:
.seh_proc _ZN5alloc7raw_vec19RawVec$LT$T$C$A$GT$11allocate_in17h885b1f8491ebd08aE
	.seh_handler __CxxFrameHandler3, @unwind, @except
	pushq	%rbp
	.seh_pushreg %rbp
	subq	$224, %rsp
	.seh_stackalloc 224
	leaq	128(%rsp), %rbp
	.seh_setframe %rbp, 128
	.seh_endprologue
	movq	$-2, 88(%rbp)
	movq	%rcx, -40(%rbp)
	andb	$1, %dl
	movb	%dl, -26(%rbp)
	cmpq	$0, %rcx
	jne	.LBB113_2
	movl	$1, %eax
	movq	%rax, 72(%rbp)
	movq	72(%rbp), %rax
	movq	%rax, 64(%rbp)
	movq	64(%rbp), %rax
	movq	%rax, -16(%rbp)
	movq	$0, -24(%rbp)
	jmp	.LBB113_14
.LBB113_2:
.Ltmp92:
	movq	-40(%rbp), %r8
	movl	$1, %edx
	movq	%rdx, %rcx
	callq	_ZN4core5alloc6layout6Layout5array5inner17h253bd2446d2153a2E
.Ltmp93:
	movq	%rdx, -56(%rbp)
	movq	%rax, -48(%rbp)
	jmp	.LBB113_4
.LBB113_4:
	movq	-56(%rbp), %rax
	movq	-48(%rbp), %rcx
	movq	%rcx, 8(%rbp)
	movq	%rax, 16(%rbp)
	xorl	%eax, %eax
	movl	$1, %ecx
	cmpq	$0, 8(%rbp)
	cmoveq	%rcx, %rax
	cmpq	$0, %rax
	jne	.LBB113_6
	movq	8(%rbp), %rcx
	movq	16(%rbp), %rax
	movq	%rcx, -8(%rbp)
	movq	%rax, (%rbp)
	movb	-26(%rbp), %al
	andb	$1, %al
	movzbl	%al, %eax
	cmpq	$0, %rax
	je	.LBB113_7
	jmp	.LBB113_8
.LBB113_6:
.Ltmp94:
	callq	_ZN5alloc7raw_vec17capacity_overflow17h9a79315ba6b95875E
.Ltmp95:
	jmp	.LBB113_15
.LBB113_7:
	movq	-8(%rbp), %rdx
	movq	(%rbp), %r8
.Ltmp98:
	leaq	-25(%rbp), %rcx
	callq	_ZN63_$LT$alloc..alloc..Global$u20$as$u20$core..alloc..Allocator$GT$8allocate17h475cd9e7537f27d3E
.Ltmp99:
	movq	%rdx, -72(%rbp)
	movq	%rax, -64(%rbp)
	jmp	.LBB113_9
.LBB113_8:
	movq	-8(%rbp), %rdx
	movq	(%rbp), %r8
.Ltmp96:
	leaq	-25(%rbp), %rcx
	callq	_ZN63_$LT$alloc..alloc..Global$u20$as$u20$core..alloc..Allocator$GT$15allocate_zeroed17hd9f0062d431cb976E
.Ltmp97:
	movq	%rdx, -88(%rbp)
	movq	%rax, -80(%rbp)
	jmp	.LBB113_11
.LBB113_9:
	movq	-72(%rbp), %rax
	movq	-64(%rbp), %rcx
	movq	%rcx, 24(%rbp)
	movq	%rax, 32(%rbp)
.LBB113_10:
	movq	24(%rbp), %rdx
	xorl	%eax, %eax
	movl	$1, %ecx
	cmpq	$0, %rdx
	cmoveq	%rcx, %rax
	cmpq	$0, %rax
	je	.LBB113_12
	jmp	.LBB113_13
.LBB113_11:
	movq	-88(%rbp), %rax
	movq	-80(%rbp), %rcx
	movq	%rcx, 24(%rbp)
	movq	%rax, 32(%rbp)
	jmp	.LBB113_10
.LBB113_12:
	movq	-40(%rbp), %rax
	movq	24(%rbp), %rcx
	movq	%rcx, 48(%rbp)
	movq	48(%rbp), %rcx
	movq	%rcx, 80(%rbp)
	movq	80(%rbp), %rcx
	movq	%rcx, 40(%rbp)
	movq	%rax, 56(%rbp)
	movq	40(%rbp), %rax
	movq	%rax, -16(%rbp)
	movq	56(%rbp), %rax
	movq	%rax, -24(%rbp)
	jmp	.LBB113_14
.LBB113_13:
	movq	-8(%rbp), %rcx
	movq	(%rbp), %rdx
.Ltmp100:
	callq	_ZN5alloc5alloc18handle_alloc_error17h15f7727f41d4cf0fE
.Ltmp101:
	jmp	.LBB113_15
.LBB113_14:
	movq	-24(%rbp), %rax
	movq	-16(%rbp), %rdx
	addq	$224, %rsp
	popq	%rbp
	retq
.LBB113_15:
	ud2
	.seh_handlerdata
	.long	($cppxdata$_ZN5alloc7raw_vec19RawVec$LT$T$C$A$GT$11allocate_in17h885b1f8491ebd08aE)@IMGREL
	.section	.text,"xr",one_only,_ZN5alloc7raw_vec19RawVec$LT$T$C$A$GT$11allocate_in17h885b1f8491ebd08aE
	.seh_endproc
	.def	"?dtor$3@?0?_ZN5alloc7raw_vec19RawVec$LT$T$C$A$GT$11allocate_in17h885b1f8491ebd08aE@4HA";
	.scl	3;
	.type	32;
	.endef
	.p2align	4, 0x90
"?dtor$3@?0?_ZN5alloc7raw_vec19RawVec$LT$T$C$A$GT$11allocate_in17h885b1f8491ebd08aE@4HA":
.seh_proc "?dtor$3@?0?_ZN5alloc7raw_vec19RawVec$LT$T$C$A$GT$11allocate_in17h885b1f8491ebd08aE@4HA"
.LBB113_3:
	movq	%rdx, 16(%rsp)
	pushq	%rbp
	.seh_pushreg %rbp
	subq	$32, %rsp
	.seh_stackalloc 32
	leaq	128(%rdx), %rbp
	.seh_endprologue
	addq	$32, %rsp
	popq	%rbp
	retq
.Lfunc_end26:
	.seh_handlerdata
	.section	.text,"xr",one_only,_ZN5alloc7raw_vec19RawVec$LT$T$C$A$GT$11allocate_in17h885b1f8491ebd08aE
	.seh_endproc
	.section	.xdata,"dr",associative,_ZN5alloc7raw_vec19RawVec$LT$T$C$A$GT$11allocate_in17h885b1f8491ebd08aE
	.p2align	2, 0x0
$cppxdata$_ZN5alloc7raw_vec19RawVec$LT$T$C$A$GT$11allocate_in17h885b1f8491ebd08aE:
	.long	429065506
	.long	1
	.long	($stateUnwindMap$_ZN5alloc7raw_vec19RawVec$LT$T$C$A$GT$11allocate_in17h885b1f8491ebd08aE)@IMGREL
	.long	0
	.long	0
	.long	3
	.long	($ip2state$_ZN5alloc7raw_vec19RawVec$LT$T$C$A$GT$11allocate_in17h885b1f8491ebd08aE)@IMGREL
	.long	216
	.long	0
	.long	1
$stateUnwindMap$_ZN5alloc7raw_vec19RawVec$LT$T$C$A$GT$11allocate_in17h885b1f8491ebd08aE:
	.long	-1
	.long	"?dtor$3@?0?_ZN5alloc7raw_vec19RawVec$LT$T$C$A$GT$11allocate_in17h885b1f8491ebd08aE@4HA"@IMGREL
$ip2state$_ZN5alloc7raw_vec19RawVec$LT$T$C$A$GT$11allocate_in17h885b1f8491ebd08aE:
	.long	.Lfunc_begin26@IMGREL
	.long	-1
	.long	.Ltmp92@IMGREL+1
	.long	0
	.long	.Ltmp101@IMGREL+1
	.long	-1
	.section	.text,"xr",one_only,_ZN5alloc7raw_vec19RawVec$LT$T$C$A$GT$11allocate_in17h885b1f8491ebd08aE

	.def	_ZN5alloc7raw_vec19RawVec$LT$T$C$A$GT$14current_memory17ha2df5dc16b5a816dE;
	.scl	3;
	.type	32;
	.endef
	.section	.text,"xr",one_only,_ZN5alloc7raw_vec19RawVec$LT$T$C$A$GT$14current_memory17ha2df5dc16b5a816dE
	.p2align	4, 0x90
_ZN5alloc7raw_vec19RawVec$LT$T$C$A$GT$14current_memory17ha2df5dc16b5a816dE:
.seh_proc _ZN5alloc7raw_vec19RawVec$LT$T$C$A$GT$14current_memory17ha2df5dc16b5a816dE
	subq	$88, %rsp
	.seh_stackalloc 88
	.seh_endprologue
	movq	%rdx, (%rsp)
	movq	%rcx, 8(%rsp)
	movq	%rcx, 16(%rsp)
	xorl	%eax, %eax
	testb	$1, %al
	jne	.LBB114_2
	movq	(%rsp), %rax
	cmpq	$0, (%rax)
	jne	.LBB114_3
.LBB114_2:
	movq	8(%rsp), %rax
	movq	$0, 8(%rax)
	jmp	.LBB114_4
.LBB114_3:
	movq	8(%rsp), %rax
	movq	(%rsp), %rcx
	movq	(%rcx), %rdx
	shlq	$0, %rdx
	movq	%rdx, 32(%rsp)
	movq	$1, 24(%rsp)
	movq	8(%rcx), %rcx
	movq	%rcx, 72(%rsp)
	movq	72(%rsp), %rcx
	movq	%rcx, 80(%rsp)
	movq	80(%rsp), %rcx
	movq	%rcx, 64(%rsp)
	movq	64(%rsp), %rcx
	movq	%rcx, 40(%rsp)
	movq	24(%rsp), %rdx
	movq	32(%rsp), %rcx
	movq	%rdx, 48(%rsp)
	movq	%rcx, 56(%rsp)
	movq	40(%rsp), %rcx
	movq	%rcx, (%rax)
	movq	48(%rsp), %rcx
	movq	%rcx, 8(%rax)
	movq	56(%rsp), %rcx
	movq	%rcx, 16(%rax)
.LBB114_4:
	movq	16(%rsp), %rax
	addq	$88, %rsp
	retq
	.seh_endproc

	.def	_ZN5alloc7raw_vec19RawVec$LT$T$C$A$GT$14grow_amortized17ha2faf96ab9f6af39E;
	.scl	3;
	.type	32;
	.endef
	.section	.text,"xr",one_only,_ZN5alloc7raw_vec19RawVec$LT$T$C$A$GT$14grow_amortized17ha2faf96ab9f6af39E
	.p2align	4, 0x90
_ZN5alloc7raw_vec19RawVec$LT$T$C$A$GT$14grow_amortized17ha2faf96ab9f6af39E:
.seh_proc _ZN5alloc7raw_vec19RawVec$LT$T$C$A$GT$14grow_amortized17ha2faf96ab9f6af39E
	subq	$408, %rsp
	.seh_stackalloc 408
	.seh_endprologue
	movq	%r8, 80(%rsp)
	movq	%rdx, 88(%rsp)
	movq	%rcx, 96(%rsp)
	xorl	%eax, %eax
	testb	$1, %al
	jne	.LBB115_2
	movq	80(%rsp), %rcx
	movq	88(%rsp), %rax
	addq	%rcx, %rax
	movq	%rax, 72(%rsp)
	setb	%al
	andb	$1, %al
	movb	%al, 407(%rsp)
	testb	$1, 407(%rsp)
	jne	.LBB115_4
	jmp	.LBB115_3
.LBB115_2:
	movq	$0, 136(%rsp)
	movq	136(%rsp), %rcx
	movq	144(%rsp), %rax
	movq	%rcx, 120(%rsp)
	movq	%rax, 128(%rsp)
	movq	120(%rsp), %rcx
	movq	128(%rsp), %rax
	movq	%rcx, 104(%rsp)
	movq	%rax, 112(%rsp)
	jmp	.LBB115_19
.LBB115_3:
	movq	72(%rsp), %rax
	movq	%rax, 192(%rsp)
	movq	$1, 184(%rsp)
	jmp	.LBB115_5
.LBB115_4:
	movq	$0, 184(%rsp)
.LBB115_5:
	movq	$0, 200(%rsp)
	cmpq	$0, 184(%rsp)
	jne	.LBB115_7
	movq	200(%rsp), %rcx
	movq	208(%rsp), %rax
	movq	%rcx, 168(%rsp)
	movq	%rax, 176(%rsp)
	jmp	.LBB115_8
.LBB115_7:
	movq	192(%rsp), %rax
	movq	%rax, 176(%rsp)
	movabsq	$-9223372036854775807, %rax
	movq	%rax, 168(%rsp)
.LBB115_8:
	movabsq	$-9223372036854775807, %rdx
	movl	$1, %eax
	xorl	%ecx, %ecx
	cmpq	%rdx, 168(%rsp)
	cmoveq	%rcx, %rax
	cmpq	$0, %rax
	jne	.LBB115_10
	movq	176(%rsp), %rax
	movq	%rax, 160(%rsp)
	movabsq	$-9223372036854775807, %rax
	movq	%rax, 152(%rsp)
	jmp	.LBB115_11
.LBB115_10:
	movq	168(%rsp), %rcx
	movq	176(%rsp), %rax
	movq	%rcx, 320(%rsp)
	movq	%rax, 328(%rsp)
	movq	320(%rsp), %rcx
	movq	328(%rsp), %rax
	movq	%rcx, 152(%rsp)
	movq	%rax, 160(%rsp)
.LBB115_11:
	movabsq	$-9223372036854775807, %rdx
	movl	$1, %eax
	xorl	%ecx, %ecx
	cmpq	%rdx, 152(%rsp)
	cmoveq	%rcx, %rax
	cmpq	$0, %rax
	jne	.LBB115_13
	movq	96(%rsp), %rax
	movq	160(%rsp), %rdx
	movq	(%rax), %rcx
	shlq	%rcx
	callq	_ZN4core3cmp6max_by17h6be5526ef6b6b243E
	movq	%rax, %rdx
	movl	$8, %ecx
	callq	_ZN4core3cmp6max_by17h6be5526ef6b6b243E
	movq	%rax, %r8
	movq	%r8, 48(%rsp)
	movl	$1, %edx
	movq	%rdx, %rcx
	callq	_ZN4core5alloc6layout6Layout5array5inner17h253bd2446d2153a2E
	movq	%rax, 56(%rsp)
	movq	%rdx, %rax
	movq	96(%rsp), %rdx
	movq	%rax, 64(%rsp)
	leaq	280(%rsp), %rcx
	callq	_ZN5alloc7raw_vec19RawVec$LT$T$C$A$GT$14current_memory17ha2df5dc16b5a816dE
	movq	96(%rsp), %rax
	movq	56(%rsp), %rdx
	movq	64(%rsp), %r8
	addq	$16, %rax
	leaq	256(%rsp), %rcx
	leaq	280(%rsp), %r9
	movq	%rax, 32(%rsp)
	callq	_ZN5alloc7raw_vec11finish_grow17h3f65f517a6211f99E
	cmpq	$0, 256(%rsp)
	je	.LBB115_14
	jmp	.LBB115_15
.LBB115_13:
	movq	152(%rsp), %rcx
	movq	160(%rsp), %rax
	movq	%rcx, 216(%rsp)
	movq	%rax, 224(%rsp)
	movq	216(%rsp), %rcx
	movq	224(%rsp), %rax
	movq	%rcx, 336(%rsp)
	movq	%rax, 344(%rsp)
	movq	336(%rsp), %rcx
	movq	344(%rsp), %rax
	movq	%rcx, 104(%rsp)
	movq	%rax, 112(%rsp)
	jmp	.LBB115_19
.LBB115_14:
	movq	264(%rsp), %rcx
	movq	272(%rsp), %rax
	movq	%rcx, 240(%rsp)
	movq	%rax, 248(%rsp)
	movq	$0, 232(%rsp)
	jmp	.LBB115_16
.LBB115_15:
	movq	264(%rsp), %rcx
	movq	272(%rsp), %rax
	movq	%rcx, 352(%rsp)
	movq	%rax, 360(%rsp)
	movq	352(%rsp), %rcx
	movq	360(%rsp), %rax
	movq	%rcx, 240(%rsp)
	movq	%rax, 248(%rsp)
	movq	$1, 232(%rsp)
.LBB115_16:
	cmpq	$0, 232(%rsp)
	jne	.LBB115_18
	movq	96(%rsp), %rax
	movq	48(%rsp), %rcx
	movq	240(%rsp), %rdx
	movq	%rdx, 376(%rsp)
	movq	376(%rsp), %rdx
	movq	%rdx, 392(%rsp)
	movq	392(%rsp), %rdx
	movq	%rdx, 368(%rsp)
	movq	368(%rsp), %rdx
	movq	%rdx, 8(%rax)
	movq	%rcx, 384(%rsp)
	movq	384(%rsp), %rcx
	movq	%rcx, (%rax)
	movabsq	$-9223372036854775807, %rax
	movq	%rax, 104(%rsp)
	jmp	.LBB115_19
.LBB115_18:
	movq	240(%rsp), %rcx
	movq	248(%rsp), %rax
	movq	%rcx, 304(%rsp)
	movq	%rax, 312(%rsp)
	movq	304(%rsp), %rcx
	movq	312(%rsp), %rax
	movq	%rcx, 104(%rsp)
	movq	%rax, 112(%rsp)
.LBB115_19:
	movq	104(%rsp), %rax
	movq	112(%rsp), %rdx
	addq	$408, %rsp
	retq
	.seh_endproc

	.def	_ZN5alloc7raw_vec19RawVec$LT$T$C$A$GT$7reserve21do_reserve_and_handle17h587d3d9522cc8a67E;
	.scl	3;
	.type	32;
	.endef
	.section	.text,"xr",one_only,_ZN5alloc7raw_vec19RawVec$LT$T$C$A$GT$7reserve21do_reserve_and_handle17h587d3d9522cc8a67E
	.p2align	4, 0x90
_ZN5alloc7raw_vec19RawVec$LT$T$C$A$GT$7reserve21do_reserve_and_handle17h587d3d9522cc8a67E:
.seh_proc _ZN5alloc7raw_vec19RawVec$LT$T$C$A$GT$7reserve21do_reserve_and_handle17h587d3d9522cc8a67E
	subq	$40, %rsp
	.seh_stackalloc 40
	.seh_endprologue
	callq	_ZN5alloc7raw_vec19RawVec$LT$T$C$A$GT$14grow_amortized17ha2faf96ab9f6af39E
	movq	%rax, %rcx
	callq	_ZN5alloc7raw_vec14handle_reserve17hc596f7f26a750b3fE
	nop
	addq	$40, %rsp
	retq
	.seh_endproc

	.def	_ZN63_$LT$I$u20$as$u20$core..iter..traits..collect..IntoIterator$GT$9into_iter17hc3bb217f1d358d13E;
	.scl	3;
	.type	32;
	.endef
	.section	.text,"xr",one_only,_ZN63_$LT$I$u20$as$u20$core..iter..traits..collect..IntoIterator$GT$9into_iter17hc3bb217f1d358d13E
	.p2align	4, 0x90
_ZN63_$LT$I$u20$as$u20$core..iter..traits..collect..IntoIterator$GT$9into_iter17hc3bb217f1d358d13E:
	movq	%rcx, %rax
	retq

	.def	_ZN63_$LT$I$u20$as$u20$core..iter..traits..collect..IntoIterator$GT$9into_iter17hdd636e37caafaf65E;
	.scl	3;
	.type	32;
	.endef
	.section	.text,"xr",one_only,_ZN63_$LT$I$u20$as$u20$core..iter..traits..collect..IntoIterator$GT$9into_iter17hdd636e37caafaf65E
	.p2align	4, 0x90
_ZN63_$LT$I$u20$as$u20$core..iter..traits..collect..IntoIterator$GT$9into_iter17hdd636e37caafaf65E:
.seh_proc _ZN63_$LT$I$u20$as$u20$core..iter..traits..collect..IntoIterator$GT$9into_iter17hdd636e37caafaf65E
	subq	$40, %rsp
	.seh_stackalloc 40
	.seh_endprologue
	movq	%rcx, %rax
	movq	%rax, 32(%rsp)
	movl	$104, %r8d
	callq	memcpy
	movq	32(%rsp), %rax
	addq	$40, %rsp
	retq
	.seh_endproc

	.def	_ZN63_$LT$alloc..alloc..Global$u20$as$u20$core..alloc..Allocator$GT$10deallocate17h2905548e42592e89E;
	.scl	3;
	.type	32;
	.endef
	.section	.text,"xr",one_only,_ZN63_$LT$alloc..alloc..Global$u20$as$u20$core..alloc..Allocator$GT$10deallocate17h2905548e42592e89E
	.p2align	4, 0x90
_ZN63_$LT$alloc..alloc..Global$u20$as$u20$core..alloc..Allocator$GT$10deallocate17h2905548e42592e89E:
.seh_proc _ZN63_$LT$alloc..alloc..Global$u20$as$u20$core..alloc..Allocator$GT$10deallocate17h2905548e42592e89E
	subq	$88, %rsp
	.seh_stackalloc 88
	.seh_endprologue
	movq	%rdx, 40(%rsp)
	movq	%r8, 48(%rsp)
	movq	%r9, 56(%rsp)
	cmpq	$0, 56(%rsp)
	jne	.LBB119_2
	jmp	.LBB119_3
.LBB119_2:
	movq	40(%rsp), %rcx
	movq	48(%rsp), %rdx
	movq	56(%rsp), %rax
	movq	%rdx, 64(%rsp)
	movq	%rax, 72(%rsp)
	movq	72(%rsp), %rdx
	movq	64(%rsp), %rax
	movq	%rax, 80(%rsp)
	movq	80(%rsp), %r8
	callq	__rust_dealloc
.LBB119_3:
	nop
	addq	$88, %rsp
	retq
	.seh_endproc

	.def	_ZN63_$LT$alloc..alloc..Global$u20$as$u20$core..alloc..Allocator$GT$15allocate_zeroed17hd9f0062d431cb976E;
	.scl	3;
	.type	32;
	.endef
	.section	.text,"xr",one_only,_ZN63_$LT$alloc..alloc..Global$u20$as$u20$core..alloc..Allocator$GT$15allocate_zeroed17hd9f0062d431cb976E
	.p2align	4, 0x90
_ZN63_$LT$alloc..alloc..Global$u20$as$u20$core..alloc..Allocator$GT$15allocate_zeroed17hd9f0062d431cb976E:
.seh_proc _ZN63_$LT$alloc..alloc..Global$u20$as$u20$core..alloc..Allocator$GT$15allocate_zeroed17hd9f0062d431cb976E
	subq	$40, %rsp
	.seh_stackalloc 40
	.seh_endprologue
	movb	$1, %r9b
	callq	_ZN5alloc5alloc6Global10alloc_impl17hdd7f3bfd7fb44c42E
	nop
	addq	$40, %rsp
	retq
	.seh_endproc

	.def	_ZN63_$LT$alloc..alloc..Global$u20$as$u20$core..alloc..Allocator$GT$4grow17h0dc87623fc72e294E;
	.scl	3;
	.type	32;
	.endef
	.section	.text,"xr",one_only,_ZN63_$LT$alloc..alloc..Global$u20$as$u20$core..alloc..Allocator$GT$4grow17h0dc87623fc72e294E
	.p2align	4, 0x90
_ZN63_$LT$alloc..alloc..Global$u20$as$u20$core..alloc..Allocator$GT$4grow17h0dc87623fc72e294E:
.seh_proc _ZN63_$LT$alloc..alloc..Global$u20$as$u20$core..alloc..Allocator$GT$4grow17h0dc87623fc72e294E
	subq	$56, %rsp
	.seh_stackalloc 56
	.seh_endprologue
	movq	104(%rsp), %r11
	movq	96(%rsp), %r10
	movq	%rsp, %rax
	movq	%r11, 40(%rax)
	movq	%r10, 32(%rax)
	movb	$0, 48(%rax)
	callq	_ZN5alloc5alloc6Global9grow_impl17h05479bbbf557ef36E
	nop
	addq	$56, %rsp
	retq
	.seh_endproc

	.def	_ZN63_$LT$alloc..alloc..Global$u20$as$u20$core..alloc..Allocator$GT$8allocate17h475cd9e7537f27d3E;
	.scl	3;
	.type	32;
	.endef
	.section	.text,"xr",one_only,_ZN63_$LT$alloc..alloc..Global$u20$as$u20$core..alloc..Allocator$GT$8allocate17h475cd9e7537f27d3E
	.p2align	4, 0x90
_ZN63_$LT$alloc..alloc..Global$u20$as$u20$core..alloc..Allocator$GT$8allocate17h475cd9e7537f27d3E:
.seh_proc _ZN63_$LT$alloc..alloc..Global$u20$as$u20$core..alloc..Allocator$GT$8allocate17h475cd9e7537f27d3E
	subq	$40, %rsp
	.seh_stackalloc 40
	.seh_endprologue
	xorl	%eax, %eax
	movb	%al, %r9b
	callq	_ZN5alloc5alloc6Global10alloc_impl17hdd7f3bfd7fb44c42E
	nop
	addq	$40, %rsp
	retq
	.seh_endproc

	.def	_ZN64_$LT$$RF$usize$u20$as$u20$core..ops..arith..Div$LT$usize$GT$$GT$3div17hd6a3845560fe4149E;
	.scl	3;
	.type	32;
	.endef
	.section	.text,"xr",one_only,_ZN64_$LT$$RF$usize$u20$as$u20$core..ops..arith..Div$LT$usize$GT$$GT$3div17hd6a3845560fe4149E
	.p2align	4, 0x90
_ZN64_$LT$$RF$usize$u20$as$u20$core..ops..arith..Div$LT$usize$GT$$GT$3div17hd6a3845560fe4149E:
.seh_proc _ZN64_$LT$$RF$usize$u20$as$u20$core..ops..arith..Div$LT$usize$GT$$GT$3div17hd6a3845560fe4149E
	subq	$56, %rsp
	.seh_stackalloc 56
	.seh_endprologue
	movq	%r8, 32(%rsp)
	movq	%rdx, 40(%rsp)
	movq	(%rcx), %rax
	movq	%rax, 48(%rsp)
	cmpq	$0, %rdx
	sete	%al
	testb	$1, %al
	jne	.LBB123_2
	movq	40(%rsp), %rcx
	movq	48(%rsp), %rax
	xorl	%edx, %edx
	divq	%rcx
	addq	$56, %rsp
	retq
.LBB123_2:
	movq	32(%rsp), %r8
	leaq	str.1(%rip), %rcx
	movl	$25, %edx
	callq	_ZN4core9panicking5panic17h61d0277f5e1a7407E
	int3
	.seh_endproc

	.def	_ZN64_$LT$$RF$usize$u20$as$u20$core..ops..arith..Rem$LT$usize$GT$$GT$3rem17h9706dc9d3e434839E;
	.scl	3;
	.type	32;
	.endef
	.section	.text,"xr",one_only,_ZN64_$LT$$RF$usize$u20$as$u20$core..ops..arith..Rem$LT$usize$GT$$GT$3rem17h9706dc9d3e434839E
	.p2align	4, 0x90
_ZN64_$LT$$RF$usize$u20$as$u20$core..ops..arith..Rem$LT$usize$GT$$GT$3rem17h9706dc9d3e434839E:
.seh_proc _ZN64_$LT$$RF$usize$u20$as$u20$core..ops..arith..Rem$LT$usize$GT$$GT$3rem17h9706dc9d3e434839E
	subq	$56, %rsp
	.seh_stackalloc 56
	.seh_endprologue
	movq	%r8, 32(%rsp)
	movq	%rdx, 40(%rsp)
	movq	(%rcx), %rax
	movq	%rax, 48(%rsp)
	cmpq	$0, %rdx
	sete	%al
	testb	$1, %al
	jne	.LBB124_2
	movq	40(%rsp), %rcx
	movq	48(%rsp), %rax
	xorl	%edx, %edx
	divq	%rcx
	movq	%rdx, %rax
	addq	$56, %rsp
	retq
.LBB124_2:
	movq	32(%rsp), %r8
	leaq	str.2(%rip), %rcx
	movl	$57, %edx
	callq	_ZN4core9panicking5panic17h61d0277f5e1a7407E
	int3
	.seh_endproc

	.def	_ZN65_$LT$alloc..string..String$u20$as$u20$core..ops..deref..Deref$GT$5deref17hd7e2da6bebd01339E;
	.scl	3;
	.type	32;
	.endef
	.section	.text,"xr",one_only,_ZN65_$LT$alloc..string..String$u20$as$u20$core..ops..deref..Deref$GT$5deref17hd7e2da6bebd01339E
	.p2align	4, 0x90
_ZN65_$LT$alloc..string..String$u20$as$u20$core..ops..deref..Deref$GT$5deref17hd7e2da6bebd01339E:
.seh_proc _ZN65_$LT$alloc..string..String$u20$as$u20$core..ops..deref..Deref$GT$5deref17hd7e2da6bebd01339E
	subq	$32, %rsp
	.seh_stackalloc 32
	.seh_endprologue
	movq	%rcx, %rax
	movq	8(%rax), %rcx
	movq	16(%rax), %rax
	movq	%rcx, 16(%rsp)
	movq	%rax, 24(%rsp)
	movq	16(%rsp), %rcx
	movq	24(%rsp), %rax
	movq	%rcx, (%rsp)
	movq	%rax, 8(%rsp)
	movq	(%rsp), %rax
	movq	8(%rsp), %rdx
	addq	$32, %rsp
	retq
	.seh_endproc

	.def	_ZN70_$LT$alloc..vec..Vec$LT$T$C$A$GT$$u20$as$u20$core..ops..drop..Drop$GT$4drop17h91f9a3f40be4b37dE;
	.scl	3;
	.type	32;
	.endef
	.section	.text,"xr",one_only,_ZN70_$LT$alloc..vec..Vec$LT$T$C$A$GT$$u20$as$u20$core..ops..drop..Drop$GT$4drop17h91f9a3f40be4b37dE
	.p2align	4, 0x90
_ZN70_$LT$alloc..vec..Vec$LT$T$C$A$GT$$u20$as$u20$core..ops..drop..Drop$GT$4drop17h91f9a3f40be4b37dE:
.seh_proc _ZN70_$LT$alloc..vec..Vec$LT$T$C$A$GT$$u20$as$u20$core..ops..drop..Drop$GT$4drop17h91f9a3f40be4b37dE
	subq	$32, %rsp
	.seh_stackalloc 32
	.seh_endprologue
	movq	%rcx, %rax
	movq	8(%rax), %rcx
	movq	16(%rax), %rax
	movq	%rcx, 16(%rsp)
	movq	%rax, 24(%rsp)
	movq	16(%rsp), %rcx
	movq	24(%rsp), %rax
	movq	%rcx, (%rsp)
	movq	%rax, 8(%rsp)
	addq	$32, %rsp
	retq
	.seh_endproc

	.def	_ZN72_$LT$alloc..boxed..Box$LT$T$C$A$GT$$u20$as$u20$core..ops..drop..Drop$GT$4drop17h28d9df11c24f9854E;
	.scl	3;
	.type	32;
	.endef
	.section	.text,"xr",one_only,_ZN72_$LT$alloc..boxed..Box$LT$T$C$A$GT$$u20$as$u20$core..ops..drop..Drop$GT$4drop17h28d9df11c24f9854E
	.p2align	4, 0x90
_ZN72_$LT$alloc..boxed..Box$LT$T$C$A$GT$$u20$as$u20$core..ops..drop..Drop$GT$4drop17h28d9df11c24f9854E:
.seh_proc _ZN72_$LT$alloc..boxed..Box$LT$T$C$A$GT$$u20$as$u20$core..ops..drop..Drop$GT$4drop17h28d9df11c24f9854E
	subq	$104, %rsp
	.seh_stackalloc 104
	.seh_endprologue
	movq	%rcx, 32(%rsp)
	movq	(%rcx), %rax
	movq	%rax, 40(%rsp)
	movq	$24, 88(%rsp)
	movq	88(%rsp), %rcx
	movq	$8, 96(%rsp)
	movq	96(%rsp), %rax
	movq	%rcx, 56(%rsp)
	movq	%rax, 48(%rsp)
	cmpq	$0, 56(%rsp)
	jne	.LBB127_2
	jmp	.LBB127_3
.LBB127_2:
	movq	40(%rsp), %rax
	movq	32(%rsp), %rcx
	addq	$8, %rcx
	movq	%rax, 72(%rsp)
	movq	72(%rsp), %rax
	movq	%rax, 80(%rsp)
	movq	80(%rsp), %rax
	movq	%rax, 64(%rsp)
	movq	48(%rsp), %r8
	movq	56(%rsp), %r9
	movq	64(%rsp), %rdx
	callq	_ZN63_$LT$alloc..alloc..Global$u20$as$u20$core..alloc..Allocator$GT$10deallocate17h2905548e42592e89E
.LBB127_3:
	nop
	addq	$104, %rsp
	retq
	.seh_endproc

	.def	_ZN72_$LT$alloc..boxed..Box$LT$T$C$A$GT$$u20$as$u20$core..ops..drop..Drop$GT$4drop17h69901fc7641326d5E;
	.scl	3;
	.type	32;
	.endef
	.section	.text,"xr",one_only,_ZN72_$LT$alloc..boxed..Box$LT$T$C$A$GT$$u20$as$u20$core..ops..drop..Drop$GT$4drop17h69901fc7641326d5E
	.p2align	4, 0x90
_ZN72_$LT$alloc..boxed..Box$LT$T$C$A$GT$$u20$as$u20$core..ops..drop..Drop$GT$4drop17h69901fc7641326d5E:
.seh_proc _ZN72_$LT$alloc..boxed..Box$LT$T$C$A$GT$$u20$as$u20$core..ops..drop..Drop$GT$4drop17h69901fc7641326d5E
	subq	$104, %rsp
	.seh_stackalloc 104
	.seh_endprologue
	movq	%rcx, 32(%rsp)
	movq	(%rcx), %rax
	movq	%rax, 40(%rsp)
	movq	8(%rcx), %rax
	movq	8(%rax), %rcx
	movq	%rcx, 88(%rsp)
	movq	88(%rsp), %rcx
	movq	16(%rax), %rax
	movq	%rax, 96(%rsp)
	movq	96(%rsp), %rax
	movq	%rcx, 56(%rsp)
	movq	%rax, 48(%rsp)
	cmpq	$0, 56(%rsp)
	jne	.LBB128_2
	jmp	.LBB128_3
.LBB128_2:
	movq	40(%rsp), %rax
	movq	32(%rsp), %rcx
	addq	$16, %rcx
	movq	%rax, 72(%rsp)
	movq	72(%rsp), %rax
	movq	%rax, 80(%rsp)
	movq	80(%rsp), %rax
	movq	%rax, 64(%rsp)
	movq	48(%rsp), %r8
	movq	56(%rsp), %r9
	movq	64(%rsp), %rdx
	callq	_ZN63_$LT$alloc..alloc..Global$u20$as$u20$core..alloc..Allocator$GT$10deallocate17h2905548e42592e89E
.LBB128_3:
	nop
	addq	$104, %rsp
	retq
	.seh_endproc

	.def	_ZN73_$LT$$u5b$A$u5d$$u20$as$u20$core..slice..cmp..SlicePartialEq$LT$B$GT$$GT$5equal17hea4a008ad6c2737fE;
	.scl	3;
	.type	32;
	.endef
	.section	.text,"xr",one_only,_ZN73_$LT$$u5b$A$u5d$$u20$as$u20$core..slice..cmp..SlicePartialEq$LT$B$GT$$GT$5equal17hea4a008ad6c2737fE
	.p2align	4, 0x90
_ZN73_$LT$$u5b$A$u5d$$u20$as$u20$core..slice..cmp..SlicePartialEq$LT$B$GT$$GT$5equal17hea4a008ad6c2737fE:
.seh_proc _ZN73_$LT$$u5b$A$u5d$$u20$as$u20$core..slice..cmp..SlicePartialEq$LT$B$GT$$GT$5equal17hea4a008ad6c2737fE
	subq	$88, %rsp
	.seh_stackalloc 88
	.seh_endprologue
	movq	%r8, 40(%rsp)
	movq	%rdx, 48(%rsp)
	movq	%rcx, 56(%rsp)
	cmpq	%r9, %rdx
	jne	.LBB129_2
	movq	40(%rsp), %rdx
	movq	56(%rsp), %rcx
	movq	48(%rsp), %rax
	shlq	$0, %rax
	movq	%rax, 72(%rsp)
	movq	72(%rsp), %r8
	callq	memcmp
	movl	%eax, 84(%rsp)
	cmpl	$0, 84(%rsp)
	sete	%al
	andb	$1, %al
	movb	%al, 71(%rsp)
	jmp	.LBB129_3
.LBB129_2:
	movb	$0, 71(%rsp)
.LBB129_3:
	movb	71(%rsp), %al
	andb	$1, %al
	movzbl	%al, %eax
	addq	$88, %rsp
	retq
	.seh_endproc

	.def	_ZN74_$LT$T$u20$as$u20$core..iter..adapters..flatten..ConstSizeIntoIterator$GT$4size17ha0e47bcb212c57acE;
	.scl	3;
	.type	32;
	.endef
	.section	.text,"xr",one_only,_ZN74_$LT$T$u20$as$u20$core..iter..adapters..flatten..ConstSizeIntoIterator$GT$4size17ha0e47bcb212c57acE
	.p2align	4, 0x90
_ZN74_$LT$T$u20$as$u20$core..iter..adapters..flatten..ConstSizeIntoIterator$GT$4size17ha0e47bcb212c57acE:
.seh_proc _ZN74_$LT$T$u20$as$u20$core..iter..adapters..flatten..ConstSizeIntoIterator$GT$4size17ha0e47bcb212c57acE
	subq	$16, %rsp
	.seh_stackalloc 16
	.seh_endprologue
	movq	$0, (%rsp)
	movq	(%rsp), %rax
	movq	8(%rsp), %rdx
	addq	$16, %rsp
	retq
	.seh_endproc

	.def	_ZN75_$LT$usize$u20$as$u20$core..slice..index..SliceIndex$LT$$u5b$T$u5d$$GT$$GT$5index17hdd9ba67178bd1c8dE;
	.scl	3;
	.type	32;
	.endef
	.section	.text,"xr",one_only,_ZN75_$LT$usize$u20$as$u20$core..slice..index..SliceIndex$LT$$u5b$T$u5d$$GT$$GT$5index17hdd9ba67178bd1c8dE
	.p2align	4, 0x90
_ZN75_$LT$usize$u20$as$u20$core..slice..index..SliceIndex$LT$$u5b$T$u5d$$GT$$GT$5index17hdd9ba67178bd1c8dE:
.seh_proc _ZN75_$LT$usize$u20$as$u20$core..slice..index..SliceIndex$LT$$u5b$T$u5d$$GT$$GT$5index17hdd9ba67178bd1c8dE
	subq	$72, %rsp
	.seh_stackalloc 72
	.seh_endprologue
	movq	%r9, 40(%rsp)
	movq	%r8, 48(%rsp)
	movq	%rdx, 56(%rsp)
	movq	%rcx, 64(%rsp)
	cmpq	%r8, %rcx
	setb	%al
	testb	$1, %al
	jne	.LBB131_1
	jmp	.LBB131_2
.LBB131_1:
	movq	64(%rsp), %rcx
	movq	56(%rsp), %rax
	addq	%rcx, %rax
	addq	$72, %rsp
	retq
.LBB131_2:
	movq	40(%rsp), %r8
	movq	48(%rsp), %rdx
	movq	64(%rsp), %rcx
	callq	_ZN4core9panicking18panic_bounds_check17h3d6d0774794afe02E
	int3
	.seh_endproc

	.def	_ZN77_$LT$alloc..raw_vec..RawVec$LT$T$C$A$GT$$u20$as$u20$core..ops..drop..Drop$GT$4drop17h4947f69e28200761E;
	.scl	3;
	.type	32;
	.endef
	.section	.text,"xr",one_only,_ZN77_$LT$alloc..raw_vec..RawVec$LT$T$C$A$GT$$u20$as$u20$core..ops..drop..Drop$GT$4drop17h4947f69e28200761E
	.p2align	4, 0x90
_ZN77_$LT$alloc..raw_vec..RawVec$LT$T$C$A$GT$$u20$as$u20$core..ops..drop..Drop$GT$4drop17h4947f69e28200761E:
.seh_proc _ZN77_$LT$alloc..raw_vec..RawVec$LT$T$C$A$GT$$u20$as$u20$core..ops..drop..Drop$GT$4drop17h4947f69e28200761E
	subq	$72, %rsp
	.seh_stackalloc 72
	.seh_endprologue
	movq	%rcx, %rdx
	movq	%rdx, 40(%rsp)
	leaq	48(%rsp), %rcx
	callq	_ZN5alloc7raw_vec19RawVec$LT$T$C$A$GT$14current_memory17ha2df5dc16b5a816dE
	movl	$1, %eax
	xorl	%ecx, %ecx
	cmpq	$0, 56(%rsp)
	cmoveq	%rcx, %rax
	cmpq	$1, %rax
	jne	.LBB132_2
	movq	40(%rsp), %rcx
	movq	48(%rsp), %rdx
	movq	56(%rsp), %r8
	movq	64(%rsp), %r9
	addq	$16, %rcx
	callq	_ZN63_$LT$alloc..alloc..Global$u20$as$u20$core..alloc..Allocator$GT$10deallocate17h2905548e42592e89E
.LBB132_2:
	nop
	addq	$72, %rsp
	retq
	.seh_endproc

	.def	_ZN78_$LT$std..io..error..repr_bitpacked..Repr$u20$as$u20$core..ops..drop..Drop$GT$4drop17hd03cae4f6e7fb9f8E;
	.scl	3;
	.type	32;
	.endef
	.section	.text,"xr",one_only,_ZN78_$LT$std..io..error..repr_bitpacked..Repr$u20$as$u20$core..ops..drop..Drop$GT$4drop17hd03cae4f6e7fb9f8E
	.p2align	4, 0x90
_ZN78_$LT$std..io..error..repr_bitpacked..Repr$u20$as$u20$core..ops..drop..Drop$GT$4drop17hd03cae4f6e7fb9f8E:
.seh_proc _ZN78_$LT$std..io..error..repr_bitpacked..Repr$u20$as$u20$core..ops..drop..Drop$GT$4drop17hd03cae4f6e7fb9f8E
	subq	$56, %rsp
	.seh_stackalloc 56
	.seh_endprologue
	movq	(%rcx), %rdx
	leaq	40(%rsp), %rcx
	callq	_ZN3std2io5error14repr_bitpacked11decode_repr17h287243bd1fa7785bE
	leaq	40(%rsp), %rcx
	callq	_ZN4core3ptr101drop_in_place$LT$std..io..error..ErrorData$LT$alloc..boxed..Box$LT$std..io..error..Custom$GT$$GT$$GT$17h2542ab27db33ab85E
	nop
	addq	$56, %rsp
	retq
	.seh_endproc

	.def	_ZN78_$LT$std..io..error..repr_bitpacked..Repr$u20$as$u20$core..ops..drop..Drop$GT$4drop28_$u7b$$u7b$closure$u7d$$u7d$17h476c4a73c1b870f6E;
	.scl	3;
	.type	32;
	.endef
	.section	.text,"xr",one_only,_ZN78_$LT$std..io..error..repr_bitpacked..Repr$u20$as$u20$core..ops..drop..Drop$GT$4drop28_$u7b$$u7b$closure$u7d$$u7d$17h476c4a73c1b870f6E
	.p2align	4, 0x90
_ZN78_$LT$std..io..error..repr_bitpacked..Repr$u20$as$u20$core..ops..drop..Drop$GT$4drop28_$u7b$$u7b$closure$u7d$$u7d$17h476c4a73c1b870f6E:
.seh_proc _ZN78_$LT$std..io..error..repr_bitpacked..Repr$u20$as$u20$core..ops..drop..Drop$GT$4drop28_$u7b$$u7b$closure$u7d$$u7d$17h476c4a73c1b870f6E
	subq	$24, %rsp
	.seh_stackalloc 24
	.seh_endprologue
	movq	%rcx, 16(%rsp)
	movq	16(%rsp), %rax
	movq	%rax, 8(%rsp)
	movq	8(%rsp), %rax
	movq	%rax, (%rsp)
	movq	(%rsp), %rax
	addq	$24, %rsp
	retq
	.seh_endproc

	.def	_ZN81_$LT$alloc..vec..Vec$LT$T$C$A$GT$$u20$as$u20$core..ops..index..Index$LT$I$GT$$GT$5index17hcf50a01177e1c485E;
	.scl	3;
	.type	32;
	.endef
	.section	.text,"xr",one_only,_ZN81_$LT$alloc..vec..Vec$LT$T$C$A$GT$$u20$as$u20$core..ops..index..Index$LT$I$GT$$GT$5index17hcf50a01177e1c485E
	.p2align	4, 0x90
_ZN81_$LT$alloc..vec..Vec$LT$T$C$A$GT$$u20$as$u20$core..ops..index..Index$LT$I$GT$$GT$5index17hcf50a01177e1c485E:
.Lfunc_begin27:
.seh_proc _ZN81_$LT$alloc..vec..Vec$LT$T$C$A$GT$$u20$as$u20$core..ops..index..Index$LT$I$GT$$GT$5index17hcf50a01177e1c485E
	.seh_handler __CxxFrameHandler3, @unwind, @except
	pushq	%rbp
	.seh_pushreg %rbp
	subq	$96, %rsp
	.seh_stackalloc 96
	leaq	96(%rsp), %rbp
	.seh_setframe %rbp, 96
	.seh_endprologue
	movq	$-2, -8(%rbp)
	movq	%r8, %r9
	movq	%rdx, -56(%rbp)
	movq	%rcx, %rax
	movq	-56(%rbp), %rcx
	movq	8(%rax), %rdx
	movq	16(%rax), %rax
	movq	%rdx, -24(%rbp)
	movq	%rax, -16(%rbp)
	movq	-24(%rbp), %rdx
	movq	-16(%rbp), %rax
	movq	%rdx, -40(%rbp)
	movq	%rax, -32(%rbp)
	movq	-40(%rbp), %rdx
	movq	-32(%rbp), %r8
.Ltmp102:
	callq	_ZN75_$LT$usize$u20$as$u20$core..slice..index..SliceIndex$LT$$u5b$T$u5d$$GT$$GT$5index17hdd9ba67178bd1c8dE
.Ltmp103:
	movq	%rax, -48(%rbp)
	jmp	.LBB135_2
.LBB135_2:
	movq	-48(%rbp), %rax
	addq	$96, %rsp
	popq	%rbp
	retq
	.seh_handlerdata
	.long	($cppxdata$_ZN81_$LT$alloc..vec..Vec$LT$T$C$A$GT$$u20$as$u20$core..ops..index..Index$LT$I$GT$$GT$5index17hcf50a01177e1c485E)@IMGREL
	.section	.text,"xr",one_only,_ZN81_$LT$alloc..vec..Vec$LT$T$C$A$GT$$u20$as$u20$core..ops..index..Index$LT$I$GT$$GT$5index17hcf50a01177e1c485E
	.seh_endproc
	.def	"?dtor$1@?0?_ZN81_$LT$alloc..vec..Vec$LT$T$C$A$GT$$u20$as$u20$core..ops..index..Index$LT$I$GT$$GT$5index17hcf50a01177e1c485E@4HA";
	.scl	3;
	.type	32;
	.endef
	.p2align	4, 0x90
"?dtor$1@?0?_ZN81_$LT$alloc..vec..Vec$LT$T$C$A$GT$$u20$as$u20$core..ops..index..Index$LT$I$GT$$GT$5index17hcf50a01177e1c485E@4HA":
.seh_proc "?dtor$1@?0?_ZN81_$LT$alloc..vec..Vec$LT$T$C$A$GT$$u20$as$u20$core..ops..index..Index$LT$I$GT$$GT$5index17hcf50a01177e1c485E@4HA"
.LBB135_1:
	movq	%rdx, 16(%rsp)
	pushq	%rbp
	.seh_pushreg %rbp
	subq	$32, %rsp
	.seh_stackalloc 32
	leaq	96(%rdx), %rbp
	.seh_endprologue
	addq	$32, %rsp
	popq	%rbp
	retq
.Lfunc_end27:
	.seh_handlerdata
	.section	.text,"xr",one_only,_ZN81_$LT$alloc..vec..Vec$LT$T$C$A$GT$$u20$as$u20$core..ops..index..Index$LT$I$GT$$GT$5index17hcf50a01177e1c485E
	.seh_endproc
	.section	.xdata,"dr",associative,_ZN81_$LT$alloc..vec..Vec$LT$T$C$A$GT$$u20$as$u20$core..ops..index..Index$LT$I$GT$$GT$5index17hcf50a01177e1c485E
	.p2align	2, 0x0
$cppxdata$_ZN81_$LT$alloc..vec..Vec$LT$T$C$A$GT$$u20$as$u20$core..ops..index..Index$LT$I$GT$$GT$5index17hcf50a01177e1c485E:
	.long	429065506
	.long	1
	.long	($stateUnwindMap$_ZN81_$LT$alloc..vec..Vec$LT$T$C$A$GT$$u20$as$u20$core..ops..index..Index$LT$I$GT$$GT$5index17hcf50a01177e1c485E)@IMGREL
	.long	0
	.long	0
	.long	3
	.long	($ip2state$_ZN81_$LT$alloc..vec..Vec$LT$T$C$A$GT$$u20$as$u20$core..ops..index..Index$LT$I$GT$$GT$5index17hcf50a01177e1c485E)@IMGREL
	.long	88
	.long	0
	.long	1
$stateUnwindMap$_ZN81_$LT$alloc..vec..Vec$LT$T$C$A$GT$$u20$as$u20$core..ops..index..Index$LT$I$GT$$GT$5index17hcf50a01177e1c485E:
	.long	-1
	.long	"?dtor$1@?0?_ZN81_$LT$alloc..vec..Vec$LT$T$C$A$GT$$u20$as$u20$core..ops..index..Index$LT$I$GT$$GT$5index17hcf50a01177e1c485E@4HA"@IMGREL
$ip2state$_ZN81_$LT$alloc..vec..Vec$LT$T$C$A$GT$$u20$as$u20$core..ops..index..Index$LT$I$GT$$GT$5index17hcf50a01177e1c485E:
	.long	.Lfunc_begin27@IMGREL
	.long	-1
	.long	.Ltmp102@IMGREL+1
	.long	0
	.long	.Ltmp103@IMGREL+1
	.long	-1
	.section	.text,"xr",one_only,_ZN81_$LT$alloc..vec..Vec$LT$T$C$A$GT$$u20$as$u20$core..ops..index..Index$LT$I$GT$$GT$5index17hcf50a01177e1c485E

	.def	_ZN81_$LT$core..str..iter..Chars$u20$as$u20$core..iter..traits..iterator..Iterator$GT$4next17h9acb2340324607faE;
	.scl	3;
	.type	32;
	.endef
	.section	.text,"xr",one_only,_ZN81_$LT$core..str..iter..Chars$u20$as$u20$core..iter..traits..iterator..Iterator$GT$4next17h9acb2340324607faE
	.p2align	4, 0x90
_ZN81_$LT$core..str..iter..Chars$u20$as$u20$core..iter..traits..iterator..Iterator$GT$4next17h9acb2340324607faE:
.seh_proc _ZN81_$LT$core..str..iter..Chars$u20$as$u20$core..iter..traits..iterator..Iterator$GT$4next17h9acb2340324607faE
	subq	$56, %rsp
	.seh_stackalloc 56
	.seh_endprologue
	callq	_ZN4core3str11validations15next_code_point17h4e1e1ba30da8a832E
	movl	%edx, 52(%rsp)
	movl	%eax, 48(%rsp)
	movl	48(%rsp), %eax
	cmpq	$0, %rax
	jne	.LBB136_2
	movl	$1114112, 44(%rsp)
	jmp	.LBB136_3
.LBB136_2:
	movl	52(%rsp), %eax
	movl	%eax, 44(%rsp)
.LBB136_3:
	movl	44(%rsp), %eax
	addq	$56, %rsp
	retq
	.seh_endproc

	.def	_ZN81_$LT$core..str..iter..Chars$u20$as$u20$core..iter..traits..iterator..Iterator$GT$9size_hint17hfb0702ad9a9ac19cE;
	.scl	3;
	.type	32;
	.endef
	.section	.text,"xr",one_only,_ZN81_$LT$core..str..iter..Chars$u20$as$u20$core..iter..traits..iterator..Iterator$GT$9size_hint17hfb0702ad9a9ac19cE
	.p2align	4, 0x90
_ZN81_$LT$core..str..iter..Chars$u20$as$u20$core..iter..traits..iterator..Iterator$GT$9size_hint17hfb0702ad9a9ac19cE:
.seh_proc _ZN81_$LT$core..str..iter..Chars$u20$as$u20$core..iter..traits..iterator..Iterator$GT$9size_hint17hfb0702ad9a9ac19cE
	subq	$24, %rsp
	.seh_stackalloc 24
	.seh_endprologue
	movq	%rdx, %r8
	movq	%rcx, %rax
	movq	8(%r8), %rdx
	movq	(%r8), %r8
	subq	%r8, %rdx
	movq	%rdx, 16(%rsp)
	movq	16(%rsp), %r8
	movq	%r8, %rdx
	addq	$3, %rdx
	shrq	$2, %rdx
	movq	%r8, 8(%rsp)
	movq	$1, (%rsp)
	movq	%rdx, (%rcx)
	movq	(%rsp), %r8
	movq	8(%rsp), %rdx
	movq	%r8, 8(%rcx)
	movq	%rdx, 16(%rcx)
	addq	$24, %rsp
	retq
	.seh_endproc

	.def	_ZN81_$LT$core..str..iter..Lines$u20$as$u20$core..iter..traits..iterator..Iterator$GT$4next17hf7349eb203b54a66E;
	.scl	3;
	.type	32;
	.endef
	.section	.text,"xr",one_only,_ZN81_$LT$core..str..iter..Lines$u20$as$u20$core..iter..traits..iterator..Iterator$GT$4next17hf7349eb203b54a66E
	.p2align	4, 0x90
_ZN81_$LT$core..str..iter..Lines$u20$as$u20$core..iter..traits..iterator..Iterator$GT$4next17hf7349eb203b54a66E:
.seh_proc _ZN81_$LT$core..str..iter..Lines$u20$as$u20$core..iter..traits..iterator..Iterator$GT$4next17hf7349eb203b54a66E
	subq	$40, %rsp
	.seh_stackalloc 40
	.seh_endprologue
	callq	_ZN102_$LT$core..iter..adapters..map..Map$LT$I$C$F$GT$$u20$as$u20$core..iter..traits..iterator..Iterator$GT$4next17h56904a9aec11ac24E
	nop
	addq	$40, %rsp
	retq
	.seh_endproc

	.def	_ZN81_$LT$core..str..iter..Lines$u20$as$u20$core..iter..traits..iterator..Iterator$GT$9size_hint17h58539bd28ab2b192E;
	.scl	3;
	.type	32;
	.endef
	.section	.text,"xr",one_only,_ZN81_$LT$core..str..iter..Lines$u20$as$u20$core..iter..traits..iterator..Iterator$GT$9size_hint17h58539bd28ab2b192E
	.p2align	4, 0x90
_ZN81_$LT$core..str..iter..Lines$u20$as$u20$core..iter..traits..iterator..Iterator$GT$9size_hint17h58539bd28ab2b192E:
.seh_proc _ZN81_$LT$core..str..iter..Lines$u20$as$u20$core..iter..traits..iterator..Iterator$GT$9size_hint17h58539bd28ab2b192E
	subq	$16, %rsp
	.seh_stackalloc 16
	.seh_endprologue
	movq	%rcx, %rax
	movq	$0, (%rsp)
	movq	$0, (%rcx)
	movq	(%rsp), %r8
	movq	8(%rsp), %rdx
	movq	%r8, 8(%rcx)
	movq	%rdx, 16(%rcx)
	addq	$16, %rsp
	retq
	.seh_endproc

	.def	_ZN81_$LT$core..str..pattern..CharSearcher$u20$as$u20$core..str..pattern..Searcher$GT$10next_match17hdb22031b73daad5cE;
	.scl	3;
	.type	32;
	.endef
	.section	.text,"xr",one_only,_ZN81_$LT$core..str..pattern..CharSearcher$u20$as$u20$core..str..pattern..Searcher$GT$10next_match17hdb22031b73daad5cE
	.p2align	4, 0x90
_ZN81_$LT$core..str..pattern..CharSearcher$u20$as$u20$core..str..pattern..Searcher$GT$10next_match17hdb22031b73daad5cE:
.seh_proc _ZN81_$LT$core..str..pattern..CharSearcher$u20$as$u20$core..str..pattern..Searcher$GT$10next_match17hdb22031b73daad5cE
	subq	$280, %rsp
	.seh_stackalloc 280
	.seh_endprologue
	movq	%rdx, 80(%rsp)
	movq	%rcx, 88(%rsp)
	movq	%rcx, 96(%rsp)
.LBB140_1:
	movq	80(%rsp), %rax
	movq	(%rax), %r8
	movq	8(%rax), %r9
	movq	16(%rax), %rcx
	movq	24(%rax), %rax
	movq	%rcx, 136(%rsp)
	movq	%rax, 144(%rsp)
	movq	136(%rsp), %rcx
	movq	144(%rsp), %rdx
	callq	_ZN106_$LT$core..ops..range..Range$LT$usize$GT$$u20$as$u20$core..slice..index..SliceIndex$LT$$u5b$T$u5d$$GT$$GT$3get17hf8c0ddf677615e61E
	movq	%rdx, 128(%rsp)
	movq	%rax, 120(%rsp)
	movq	120(%rsp), %rdx
	movl	$1, %eax
	xorl	%ecx, %ecx
	cmpq	$0, %rdx
	cmoveq	%rcx, %rax
	cmpq	$0, %rax
	jne	.LBB140_3
	movq	$0, 104(%rsp)
	jmp	.LBB140_4
.LBB140_3:
	movq	120(%rsp), %rcx
	movq	128(%rsp), %rax
	movq	%rcx, 104(%rsp)
	movq	%rax, 112(%rsp)
.LBB140_4:
	movq	104(%rsp), %rdx
	xorl	%eax, %eax
	movl	$1, %ecx
	cmpq	$0, %rdx
	cmoveq	%rcx, %rax
	cmpq	$0, %rax
	jne	.LBB140_6
	movq	80(%rsp), %rcx
	movq	104(%rsp), %rax
	movq	%rax, 56(%rsp)
	movq	112(%rsp), %rax
	movq	%rax, 64(%rsp)
	movq	%rcx, %r8
	addq	$40, %r8
	movq	32(%rcx), %rdx
	subq	$1, %rdx
	movq	%r8, 264(%rsp)
	movq	$4, 272(%rsp)
	movb	40(%rcx,%rdx), %cl
	movb	%cl, 79(%rsp)
	cmpq	$16, %rax
	jb	.LBB140_8
	jmp	.LBB140_7
.LBB140_6:
	movq	88(%rsp), %rax
	movq	$0, (%rax)
	jmp	.LBB140_20
.LBB140_7:
	movq	64(%rsp), %r8
	movq	56(%rsp), %rdx
	movb	79(%rsp), %cl
	callq	_ZN4core5slice6memchr14memchr_aligned17h688b9ede9a4bd4e8E
	movq	%rdx, 160(%rsp)
	movq	%rax, 152(%rsp)
	jmp	.LBB140_9
.LBB140_8:
	movq	64(%rsp), %r8
	movq	56(%rsp), %rdx
	movb	79(%rsp), %cl
	callq	_ZN4core5slice6memchr12memchr_naive17h9a942913b8fa47a0E
	movq	%rdx, 160(%rsp)
	movq	%rax, 152(%rsp)
.LBB140_9:
	cmpq	$1, 152(%rsp)
	jne	.LBB140_11
	movq	80(%rsp), %rcx
	movq	160(%rsp), %rax
	addq	$1, %rax
	addq	16(%rcx), %rax
	movq	%rax, 16(%rcx)
	movq	16(%rcx), %rax
	cmpq	32(%rcx), %rax
	jae	.LBB140_13
	jmp	.LBB140_12
.LBB140_11:
	movq	88(%rsp), %rax
	movq	80(%rsp), %rcx
	movq	24(%rcx), %rdx
	movq	%rdx, 16(%rcx)
	movq	$0, (%rax)
	jmp	.LBB140_19
.LBB140_12:
	jmp	.LBB140_14
.LBB140_13:
	movq	80(%rsp), %rdx
	movq	16(%rdx), %rax
	movq	32(%rdx), %r8
	movq	%rax, %rcx
	subq	%r8, %rcx
	movq	%rcx, 48(%rsp)
	movq	(%rdx), %r8
	movq	8(%rdx), %r9
	movq	%rcx, 184(%rsp)
	movq	%rax, 192(%rsp)
	movq	184(%rsp), %rcx
	movq	192(%rsp), %rdx
	callq	_ZN106_$LT$core..ops..range..Range$LT$usize$GT$$u20$as$u20$core..slice..index..SliceIndex$LT$$u5b$T$u5d$$GT$$GT$3get17hf8c0ddf677615e61E
	movq	%rdx, 176(%rsp)
	movq	%rax, 168(%rsp)
	movq	168(%rsp), %rdx
	movl	$1, %eax
	xorl	%ecx, %ecx
	cmpq	$0, %rdx
	cmoveq	%rcx, %rax
	cmpq	$1, %rax
	je	.LBB140_15
	jmp	.LBB140_16
.LBB140_14:
	jmp	.LBB140_1
.LBB140_15:
	movq	80(%rsp), %rax
	movq	168(%rsp), %rdx
	movq	176(%rsp), %rcx
	movq	%rdx, 200(%rsp)
	movq	%rcx, 208(%rsp)
	movq	%rax, %r8
	addq	$40, %r8
	movq	32(%rax), %rax
	movq	$0, 232(%rsp)
	movq	%rax, 240(%rsp)
	movq	232(%rsp), %rcx
	movq	240(%rsp), %rdx
	movl	$4, %r9d
	leaq	__unnamed_22(%rip), %rax
	movq	%rax, 32(%rsp)
	callq	_ZN106_$LT$core..ops..range..Range$LT$usize$GT$$u20$as$u20$core..slice..index..SliceIndex$LT$$u5b$T$u5d$$GT$$GT$5index17h9ff3a342b6ea7103E
	movq	%rax, 216(%rsp)
	movq	%rdx, 224(%rsp)
	movq	200(%rsp), %rcx
	movq	208(%rsp), %rdx
	movq	216(%rsp), %r8
	movq	224(%rsp), %r9
	callq	_ZN73_$LT$$u5b$A$u5d$$u20$as$u20$core..slice..cmp..SlicePartialEq$LT$B$GT$$GT$5equal17hea4a008ad6c2737fE
	testb	$1, %al
	jne	.LBB140_18
	jmp	.LBB140_17
.LBB140_16:
	jmp	.LBB140_14
.LBB140_17:
	jmp	.LBB140_16
.LBB140_18:
	movq	88(%rsp), %rax
	movq	48(%rsp), %rdx
	movq	80(%rsp), %rcx
	movq	16(%rcx), %rcx
	movq	%rdx, 248(%rsp)
	movq	%rcx, 256(%rsp)
	movq	248(%rsp), %rdx
	movq	256(%rsp), %rcx
	movq	%rdx, 8(%rax)
	movq	%rcx, 16(%rax)
	movq	$1, (%rax)
.LBB140_19:
	jmp	.LBB140_20
.LBB140_20:
	movq	96(%rsp), %rax
	addq	$280, %rsp
	retq
	.seh_endproc

	.def	_ZN81_$LT$core..str..pattern..CharSearcher$u20$as$u20$core..str..pattern..Searcher$GT$8haystack17h40e95e2ba80fc323E;
	.scl	3;
	.type	32;
	.endef
	.section	.text,"xr",one_only,_ZN81_$LT$core..str..pattern..CharSearcher$u20$as$u20$core..str..pattern..Searcher$GT$8haystack17h40e95e2ba80fc323E
	.p2align	4, 0x90
_ZN81_$LT$core..str..pattern..CharSearcher$u20$as$u20$core..str..pattern..Searcher$GT$8haystack17h40e95e2ba80fc323E:
	movq	(%rcx), %rax
	movq	8(%rcx), %rdx
	retq

	.def	_ZN89_$LT$core..ops..range..Range$LT$T$GT$$u20$as$u20$core..iter..range..RangeIteratorImpl$GT$9spec_next17h2645a05bfd4ecf44E;
	.scl	3;
	.type	32;
	.endef
	.section	.text,"xr",one_only,_ZN89_$LT$core..ops..range..Range$LT$T$GT$$u20$as$u20$core..iter..range..RangeIteratorImpl$GT$9spec_next17h2645a05bfd4ecf44E
	.p2align	4, 0x90
_ZN89_$LT$core..ops..range..Range$LT$T$GT$$u20$as$u20$core..iter..range..RangeIteratorImpl$GT$9spec_next17h2645a05bfd4ecf44E:
.seh_proc _ZN89_$LT$core..ops..range..Range$LT$T$GT$$u20$as$u20$core..iter..range..RangeIteratorImpl$GT$9spec_next17h2645a05bfd4ecf44E
	subq	$72, %rsp
	.seh_stackalloc 72
	.seh_endprologue
	movq	%rcx, 48(%rsp)
	movq	(%rcx), %rax
	cmpq	8(%rcx), %rax
	jb	.LBB142_2
	movq	$0, 56(%rsp)
	jmp	.LBB142_3
.LBB142_2:
	movq	48(%rsp), %rax
	movq	(%rax), %rcx
	movq	%rcx, 40(%rsp)
	movl	$1, %edx
	callq	_ZN49_$LT$usize$u20$as$u20$core..iter..range..Step$GT$17forward_unchecked17hd8bc50b28c9fda64E
	movq	48(%rsp), %rcx
	movq	%rax, %rdx
	movq	40(%rsp), %rax
	movq	%rdx, (%rcx)
	movq	%rax, 64(%rsp)
	movq	$1, 56(%rsp)
.LBB142_3:
	movq	56(%rsp), %rax
	movq	64(%rsp), %rdx
	addq	$72, %rsp
	retq
	.seh_endproc

	.def	_ZN89_$LT$core..str..LinesMap$u20$as$u20$core..ops..function..Fn$LT$$LP$$RF$str$C$$RP$$GT$$GT$4call17hadae6e633f9ab237E;
	.scl	3;
	.type	32;
	.endef
	.section	.text,"xr",one_only,_ZN89_$LT$core..str..LinesMap$u20$as$u20$core..ops..function..Fn$LT$$LP$$RF$str$C$$RP$$GT$$GT$4call17hadae6e633f9ab237E
	.p2align	4, 0x90
_ZN89_$LT$core..str..LinesMap$u20$as$u20$core..ops..function..Fn$LT$$LP$$RF$str$C$$RP$$GT$$GT$4call17hadae6e633f9ab237E:
.seh_proc _ZN89_$LT$core..str..LinesMap$u20$as$u20$core..ops..function..Fn$LT$$LP$$RF$str$C$$RP$$GT$$GT$4call17hadae6e633f9ab237E
	subq	$136, %rsp
	.seh_stackalloc 136
	.seh_endprologue
	movq	%rdx, 64(%rsp)
	movq	%r8, 72(%rsp)
	movq	64(%rsp), %rax
	movq	%rax, 48(%rsp)
	movq	72(%rsp), %rax
	movq	%rax, 56(%rsp)
	movl	$0, 128(%rsp)
	movl	$10, %ecx
	leaq	128(%rsp), %rdx
	movl	$4, %r8d
	callq	_ZN4core4char7methods15encode_utf8_raw17hf5141903a742ea7aE
	movq	48(%rsp), %r8
	movq	56(%rsp), %r9
	movq	%rax, %rcx
	callq	_ZN55_$LT$$RF$str$u20$as$u20$core..str..pattern..Pattern$GT$15strip_suffix_of17hc82d1b9cf98e0da1E
	movq	%rdx, 104(%rsp)
	movq	%rax, 96(%rsp)
	movq	96(%rsp), %rdx
	movl	$1, %eax
	xorl	%ecx, %ecx
	cmpq	$0, %rdx
	cmoveq	%rcx, %rax
	cmpq	$1, %rax
	jne	.LBB143_2
	movq	96(%rsp), %rax
	movq	%rax, 32(%rsp)
	movq	104(%rsp), %rax
	movq	%rax, 40(%rsp)
	movl	$0, 132(%rsp)
	movl	$13, %ecx
	leaq	132(%rsp), %rdx
	movl	$4, %r8d
	callq	_ZN4core4char7methods15encode_utf8_raw17hf5141903a742ea7aE
	movq	32(%rsp), %r8
	movq	40(%rsp), %r9
	movq	%rax, %rcx
	callq	_ZN55_$LT$$RF$str$u20$as$u20$core..str..pattern..Pattern$GT$15strip_suffix_of17hc82d1b9cf98e0da1E
	movq	%rdx, 120(%rsp)
	movq	%rax, 112(%rsp)
	movq	112(%rsp), %rdx
	movl	$1, %eax
	xorl	%ecx, %ecx
	cmpq	$0, %rdx
	cmoveq	%rcx, %rax
	cmpq	$1, %rax
	je	.LBB143_3
	jmp	.LBB143_4
.LBB143_2:
	movq	56(%rsp), %rax
	movq	48(%rsp), %rcx
	movq	%rcx, 80(%rsp)
	movq	%rax, 88(%rsp)
	jmp	.LBB143_5
.LBB143_3:
	movq	112(%rsp), %rcx
	movq	120(%rsp), %rax
	movq	%rcx, 80(%rsp)
	movq	%rax, 88(%rsp)
	jmp	.LBB143_5
.LBB143_4:
	movq	40(%rsp), %rax
	movq	32(%rsp), %rcx
	movq	%rcx, 80(%rsp)
	movq	%rax, 88(%rsp)
.LBB143_5:
	movq	80(%rsp), %rax
	movq	88(%rsp), %rdx
	addq	$136, %rsp
	retq
	.seh_endproc

	.def	_ZN91_$LT$core..slice..iter..Iter$LT$T$GT$$u20$as$u20$core..iter..traits..iterator..Iterator$GT$4next17h6de37a960b4f4003E;
	.scl	3;
	.type	32;
	.endef
	.section	.text,"xr",one_only,_ZN91_$LT$core..slice..iter..Iter$LT$T$GT$$u20$as$u20$core..iter..traits..iterator..Iterator$GT$4next17h6de37a960b4f4003E
	.p2align	4, 0x90
_ZN91_$LT$core..slice..iter..Iter$LT$T$GT$$u20$as$u20$core..iter..traits..iterator..Iterator$GT$4next17h6de37a960b4f4003E:
.seh_proc _ZN91_$LT$core..slice..iter..Iter$LT$T$GT$$u20$as$u20$core..iter..traits..iterator..Iterator$GT$4next17h6de37a960b4f4003E
	subq	$48, %rsp
	.seh_stackalloc 48
	.seh_endprologue
	movq	%rcx, (%rsp)
	xorl	%eax, %eax
	testb	$1, %al
	jne	.LBB144_2
	movq	(%rsp), %rax
	movq	8(%rax), %rcx
	movq	%rcx, 24(%rsp)
	movq	(%rax), %rax
	cmpq	24(%rsp), %rax
	sete	%al
	andb	$1, %al
	movb	%al, 23(%rsp)
	jmp	.LBB144_3
.LBB144_2:
	movq	(%rsp), %rax
	movq	8(%rax), %rax
	cmpq	$0, %rax
	sete	%al
	andb	$1, %al
	movb	%al, 23(%rsp)
.LBB144_3:
	testb	$1, 23(%rsp)
	jne	.LBB144_5
	movq	(%rsp), %rax
	movq	(%rax), %rax
	movq	%rax, 32(%rsp)
	xorl	%eax, %eax
	testb	$1, %al
	jne	.LBB144_7
	jmp	.LBB144_6
.LBB144_5:
	movq	$0, 8(%rsp)
	jmp	.LBB144_9
.LBB144_6:
	movq	(%rsp), %rax
	movq	(%rax), %rcx
	addq	$1, %rcx
	movq	%rcx, 40(%rsp)
	movq	40(%rsp), %rcx
	movq	%rcx, (%rax)
	jmp	.LBB144_8
.LBB144_7:
	movq	(%rsp), %rax
	movq	8(%rax), %rcx
	subq	$1, %rcx
	movq	%rcx, 8(%rax)
.LBB144_8:
	movq	32(%rsp), %rax
	movq	%rax, 8(%rsp)
.LBB144_9:
	movq	8(%rsp), %rax
	addq	$48, %rsp
	retq
	.seh_endproc

	.def	_ZN91_$LT$std..panicking..begin_panic..Payload$LT$A$GT$$u20$as$u20$core..panic..PanicPayload$GT$3get17ha9ae551cb3ffb34cE;
	.scl	3;
	.type	32;
	.endef
	.section	.text,"xr",one_only,_ZN91_$LT$std..panicking..begin_panic..Payload$LT$A$GT$$u20$as$u20$core..panic..PanicPayload$GT$3get17ha9ae551cb3ffb34cE
	.p2align	4, 0x90
_ZN91_$LT$std..panicking..begin_panic..Payload$LT$A$GT$$u20$as$u20$core..panic..PanicPayload$GT$3get17ha9ae551cb3ffb34cE:
.seh_proc _ZN91_$LT$std..panicking..begin_panic..Payload$LT$A$GT$$u20$as$u20$core..panic..PanicPayload$GT$3get17ha9ae551cb3ffb34cE
	subq	$40, %rsp
	.seh_stackalloc 40
	.seh_endprologue
	movq	%rcx, 32(%rsp)
	movq	(%rcx), %rdx
	movl	$1, %eax
	xorl	%ecx, %ecx
	cmpq	$0, %rdx
	cmoveq	%rcx, %rax
	cmpq	$0, %rax
	jne	.LBB145_2
	callq	_ZN3std7process5abort17h34180d47dbabb208E
.LBB145_2:
	movq	32(%rsp), %rax
	leaq	__unnamed_23(%rip), %rdx
	addq	$40, %rsp
	retq
	.seh_endproc

	.def	_ZN91_$LT$std..panicking..begin_panic..Payload$LT$A$GT$$u20$as$u20$core..panic..PanicPayload$GT$8take_box17h803c5eaac8cebf29E;
	.scl	3;
	.type	32;
	.endef
	.section	.text,"xr",one_only,_ZN91_$LT$std..panicking..begin_panic..Payload$LT$A$GT$$u20$as$u20$core..panic..PanicPayload$GT$8take_box17h803c5eaac8cebf29E
	.p2align	4, 0x90
_ZN91_$LT$std..panicking..begin_panic..Payload$LT$A$GT$$u20$as$u20$core..panic..PanicPayload$GT$8take_box17h803c5eaac8cebf29E:
.Lfunc_begin28:
.seh_proc _ZN91_$LT$std..panicking..begin_panic..Payload$LT$A$GT$$u20$as$u20$core..panic..PanicPayload$GT$8take_box17h803c5eaac8cebf29E
	.seh_handler __CxxFrameHandler3, @unwind, @except
	pushq	%rbp
	.seh_pushreg %rbp
	subq	$144, %rsp
	.seh_stackalloc 144
	leaq	128(%rsp), %rbp
	.seh_setframe %rbp, 128
	.seh_endprologue
	movq	$-2, 8(%rbp)
	movq	$0, -56(%rbp)
	movq	(%rcx), %rdx
	movq	8(%rcx), %rax
	movq	%rdx, -72(%rbp)
	movq	%rax, -64(%rbp)
	movq	-56(%rbp), %rdx
	movq	-48(%rbp), %rax
	movq	%rdx, (%rcx)
	movq	%rax, 8(%rcx)
	movq	-72(%rbp), %rax
	cmpq	$0, %rax
	sete	%al
	testb	$1, %al
	jne	.LBB146_1
	jmp	.LBB146_2
.LBB146_1:
	callq	_ZN3std7process5abort17h34180d47dbabb208E
.LBB146_2:
	movq	-72(%rbp), %rax
	movq	%rax, -96(%rbp)
	movq	-64(%rbp), %rax
	movq	%rax, -88(%rbp)
.Ltmp104:
	movl	$16, %ecx
	movl	$8, %edx
	callq	_ZN5alloc5alloc15exchange_malloc17hcde6b4b3e19c7e9eE
.Ltmp105:
	movq	%rax, -80(%rbp)
	jmp	.LBB146_4
.LBB146_4:
	movq	-80(%rbp), %rax
	movq	-88(%rbp), %rcx
	movq	-96(%rbp), %rdx
	movq	%rdx, (%rax)
	movq	%rcx, 8(%rax)
	movq	%rax, -40(%rbp)
	leaq	__unnamed_23(%rip), %rax
	movq	%rax, -32(%rbp)
	movq	-40(%rbp), %rcx
	movq	-32(%rbp), %rax
	movq	%rcx, -24(%rbp)
	movq	%rax, -16(%rbp)
	movq	-24(%rbp), %rcx
	movq	-16(%rbp), %rax
	movq	%rcx, -8(%rbp)
	movq	%rax, (%rbp)
	movq	-8(%rbp), %rax
	movq	(%rbp), %rdx
	addq	$144, %rsp
	popq	%rbp
	retq
	.seh_handlerdata
	.long	($cppxdata$_ZN91_$LT$std..panicking..begin_panic..Payload$LT$A$GT$$u20$as$u20$core..panic..PanicPayload$GT$8take_box17h803c5eaac8cebf29E)@IMGREL
	.section	.text,"xr",one_only,_ZN91_$LT$std..panicking..begin_panic..Payload$LT$A$GT$$u20$as$u20$core..panic..PanicPayload$GT$8take_box17h803c5eaac8cebf29E
	.seh_endproc
	.def	"?dtor$3@?0?_ZN91_$LT$std..panicking..begin_panic..Payload$LT$A$GT$$u20$as$u20$core..panic..PanicPayload$GT$8take_box17h803c5eaac8cebf29E@4HA";
	.scl	3;
	.type	32;
	.endef
	.p2align	4, 0x90
"?dtor$3@?0?_ZN91_$LT$std..panicking..begin_panic..Payload$LT$A$GT$$u20$as$u20$core..panic..PanicPayload$GT$8take_box17h803c5eaac8cebf29E@4HA":
.seh_proc "?dtor$3@?0?_ZN91_$LT$std..panicking..begin_panic..Payload$LT$A$GT$$u20$as$u20$core..panic..PanicPayload$GT$8take_box17h803c5eaac8cebf29E@4HA"
.LBB146_3:
	movq	%rdx, 16(%rsp)
	pushq	%rbp
	.seh_pushreg %rbp
	subq	$32, %rsp
	.seh_stackalloc 32
	leaq	128(%rdx), %rbp
	.seh_endprologue
	addq	$32, %rsp
	popq	%rbp
	retq
.Lfunc_end28:
	.seh_handlerdata
	.section	.text,"xr",one_only,_ZN91_$LT$std..panicking..begin_panic..Payload$LT$A$GT$$u20$as$u20$core..panic..PanicPayload$GT$8take_box17h803c5eaac8cebf29E
	.seh_endproc
	.section	.xdata,"dr",associative,_ZN91_$LT$std..panicking..begin_panic..Payload$LT$A$GT$$u20$as$u20$core..panic..PanicPayload$GT$8take_box17h803c5eaac8cebf29E
	.p2align	2, 0x0
$cppxdata$_ZN91_$LT$std..panicking..begin_panic..Payload$LT$A$GT$$u20$as$u20$core..panic..PanicPayload$GT$8take_box17h803c5eaac8cebf29E:
	.long	429065506
	.long	1
	.long	($stateUnwindMap$_ZN91_$LT$std..panicking..begin_panic..Payload$LT$A$GT$$u20$as$u20$core..panic..PanicPayload$GT$8take_box17h803c5eaac8cebf29E)@IMGREL
	.long	0
	.long	0
	.long	3
	.long	($ip2state$_ZN91_$LT$std..panicking..begin_panic..Payload$LT$A$GT$$u20$as$u20$core..panic..PanicPayload$GT$8take_box17h803c5eaac8cebf29E)@IMGREL
	.long	136
	.long	0
	.long	1
$stateUnwindMap$_ZN91_$LT$std..panicking..begin_panic..Payload$LT$A$GT$$u20$as$u20$core..panic..PanicPayload$GT$8take_box17h803c5eaac8cebf29E:
	.long	-1
	.long	"?dtor$3@?0?_ZN91_$LT$std..panicking..begin_panic..Payload$LT$A$GT$$u20$as$u20$core..panic..PanicPayload$GT$8take_box17h803c5eaac8cebf29E@4HA"@IMGREL
$ip2state$_ZN91_$LT$std..panicking..begin_panic..Payload$LT$A$GT$$u20$as$u20$core..panic..PanicPayload$GT$8take_box17h803c5eaac8cebf29E:
	.long	.Lfunc_begin28@IMGREL
	.long	-1
	.long	.Ltmp104@IMGREL+1
	.long	0
	.long	.Ltmp105@IMGREL+1
	.long	-1
	.section	.text,"xr",one_only,_ZN91_$LT$std..panicking..begin_panic..Payload$LT$A$GT$$u20$as$u20$core..panic..PanicPayload$GT$8take_box17h803c5eaac8cebf29E

	.def	_ZN92_$LT$core..str..LinesMap$u20$as$u20$core..ops..function..FnMut$LT$$LP$$RF$str$C$$RP$$GT$$GT$8call_mut17h019c79f00156bb55E;
	.scl	3;
	.type	32;
	.endef
	.section	.text,"xr",one_only,_ZN92_$LT$core..str..LinesMap$u20$as$u20$core..ops..function..FnMut$LT$$LP$$RF$str$C$$RP$$GT$$GT$8call_mut17h019c79f00156bb55E
	.p2align	4, 0x90
_ZN92_$LT$core..str..LinesMap$u20$as$u20$core..ops..function..FnMut$LT$$LP$$RF$str$C$$RP$$GT$$GT$8call_mut17h019c79f00156bb55E:
.seh_proc _ZN92_$LT$core..str..LinesMap$u20$as$u20$core..ops..function..FnMut$LT$$LP$$RF$str$C$$RP$$GT$$GT$8call_mut17h019c79f00156bb55E
	subq	$72, %rsp
	.seh_stackalloc 72
	.seh_endprologue
	movq	%rdx, 40(%rsp)
	movq	%r8, 48(%rsp)
	movq	40(%rsp), %rdx
	movq	48(%rsp), %rax
	movq	%rdx, 56(%rsp)
	movq	%rax, 64(%rsp)
	movq	56(%rsp), %rdx
	movq	64(%rsp), %r8
	callq	_ZN89_$LT$core..str..LinesMap$u20$as$u20$core..ops..function..Fn$LT$$LP$$RF$str$C$$RP$$GT$$GT$4call17hadae6e633f9ab237E
	nop
	addq	$72, %rsp
	retq
	.seh_endproc

	.def	_ZN95_$LT$alloc..vec..Vec$LT$T$GT$$u20$as$u20$core..iter..traits..collect..FromIterator$LT$T$GT$$GT$9from_iter17h5d64c6eac1f9144cE;
	.scl	3;
	.type	32;
	.endef
	.section	.text,"xr",one_only,_ZN95_$LT$alloc..vec..Vec$LT$T$GT$$u20$as$u20$core..iter..traits..collect..FromIterator$LT$T$GT$$GT$9from_iter17h5d64c6eac1f9144cE
	.p2align	4, 0x90
_ZN95_$LT$alloc..vec..Vec$LT$T$GT$$u20$as$u20$core..iter..traits..collect..FromIterator$LT$T$GT$$GT$9from_iter17h5d64c6eac1f9144cE:
.seh_proc _ZN95_$LT$alloc..vec..Vec$LT$T$GT$$u20$as$u20$core..iter..traits..collect..FromIterator$LT$T$GT$$GT$9from_iter17h5d64c6eac1f9144cE
	subq	$152, %rsp
	.seh_stackalloc 152
	.seh_endprologue
	movq	%rcx, 32(%rsp)
	movq	%rcx, 40(%rsp)
	leaq	48(%rsp), %rcx
